
code_injection_test_dhry.elf:     file format elf32-littlearm


Disassembly of section .isr_vector:

08000000 <__isr_vectors>:
 8000000:	00 00 02 20 b9 02 00 08 bf 02 00 08 c3 02 00 08     ... ............
 8000010:	35 03 00 08 39 03 00 08 81 03 00 08 00 00 00 00     5...9...........
	...
 800002c:	c9 03 00 08 cd 03 00 08 00 00 00 00 d1 03 00 08     ................
 800003c:	d5 03 00 08 e5 03 00 08 e5 03 00 08 e5 03 00 08     ................
 800004c:	e5 03 00 08 e5 03 00 08 e5 03 00 08 e5 03 00 08     ................
 800005c:	e5 03 00 08 e5 03 00 08 e5 03 00 08 e5 03 00 08     ................
 800006c:	e5 03 00 08 e5 03 00 08 e5 03 00 08 e5 03 00 08     ................
 800007c:	e5 03 00 08 e5 03 00 08 e5 03 00 08 e5 03 00 08     ................
 800008c:	e5 03 00 08 e5 03 00 08 e5 03 00 08 e5 03 00 08     ................
 800009c:	e5 03 00 08 e5 03 00 08 e5 03 00 08 e5 03 00 08     ................
 80000ac:	e5 03 00 08 e5 03 00 08 e5 03 00 08 e5 03 00 08     ................
 80000bc:	e5 03 00 08 e5 03 00 08 e5 03 00 08 e5 03 00 08     ................
 80000cc:	e5 03 00 08 e5 03 00 08 e5 03 00 08 e5 03 00 08     ................
 80000dc:	e5 03 00 08 e5 03 00 08 e5 03 00 08 e5 03 00 08     ................
 80000ec:	e5 03 00 08 e5 03 00 08 e5 03 00 08 e5 03 00 08     ................
 80000fc:	e5 03 00 08 e5 03 00 08 e5 03 00 08 e5 03 00 08     ................
 800010c:	e5 03 00 08 e5 03 00 08 e5 03 00 08 e5 03 00 08     ................
 800011c:	e5 03 00 08 e5 03 00 08 e5 03 00 08 e5 03 00 08     ................
 800012c:	e5 03 00 08 e5 03 00 08 e5 03 00 08 e5 03 00 08     ................
 800013c:	e5 03 00 08 e5 03 00 08 e5 03 00 08 e5 03 00 08     ................
 800014c:	e5 03 00 08 e5 03 00 08 e5 03 00 08 e5 03 00 08     ................
 800015c:	e5 03 00 08 e5 03 00 08 e5 03 00 08 e5 03 00 08     ................
 800016c:	e5 03 00 08 e5 03 00 08 e5 03 00 08 e5 03 00 08     ................
 800017c:	00 00 00 00 e5 03 00 08 e5 03 00 08                 ............

08000188 <_start>:
 8000188:	b500      	push	{lr}
 800018a:	b083      	sub	sp, #12
 800018c:	f001 fcc4 	bl	8001b18 <__initialize_hardware_early>
 8000190:	4b38      	ldr	r3, [pc, #224]	; (8000274 <_start+0xec>)
 8000192:	4a39      	ldr	r2, [pc, #228]	; (8000278 <_start+0xf0>)
 8000194:	6013      	str	r3, [r2, #0]
 8000196:	4a39      	ldr	r2, [pc, #228]	; (800027c <_start+0xf4>)
 8000198:	6013      	str	r3, [r2, #0]
 800019a:	4939      	ldr	r1, [pc, #228]	; (8000280 <_start+0xf8>)
 800019c:	e006      	b.n	80001ac <_start+0x24>
 800019e:	6811      	ldr	r1, [r2, #0]
 80001a0:	6019      	str	r1, [r3, #0]
 80001a2:	3304      	adds	r3, #4
 80001a4:	3204      	adds	r2, #4
 80001a6:	4298      	cmp	r0, r3
 80001a8:	d8f9      	bhi.n	800019e <_start+0x16>
 80001aa:	4621      	mov	r1, r4
 80001ac:	4b35      	ldr	r3, [pc, #212]	; (8000284 <_start+0xfc>)
 80001ae:	4299      	cmp	r1, r3
 80001b0:	d205      	bcs.n	80001be <_start+0x36>
 80001b2:	680a      	ldr	r2, [r1, #0]
 80001b4:	684b      	ldr	r3, [r1, #4]
 80001b6:	f101 040c 	add.w	r4, r1, #12
 80001ba:	6888      	ldr	r0, [r1, #8]
 80001bc:	e7f3      	b.n	80001a6 <_start+0x1e>
 80001be:	4b2e      	ldr	r3, [pc, #184]	; (8000278 <_start+0xf0>)
 80001c0:	681a      	ldr	r2, [r3, #0]
 80001c2:	4b31      	ldr	r3, [pc, #196]	; (8000288 <_start+0x100>)
 80001c4:	429a      	cmp	r2, r3
 80001c6:	d000      	beq.n	80001ca <_start+0x42>
 80001c8:	e7fe      	b.n	80001c8 <_start+0x40>
 80001ca:	4b2c      	ldr	r3, [pc, #176]	; (800027c <_start+0xf4>)
 80001cc:	681a      	ldr	r2, [r3, #0]
 80001ce:	4b2f      	ldr	r3, [pc, #188]	; (800028c <_start+0x104>)
 80001d0:	429a      	cmp	r2, r3
 80001d2:	d1f9      	bne.n	80001c8 <_start+0x40>
 80001d4:	4b27      	ldr	r3, [pc, #156]	; (8000274 <_start+0xec>)
 80001d6:	4a2e      	ldr	r2, [pc, #184]	; (8000290 <_start+0x108>)
 80001d8:	6013      	str	r3, [r2, #0]
 80001da:	4a2e      	ldr	r2, [pc, #184]	; (8000294 <_start+0x10c>)
 80001dc:	6013      	str	r3, [r2, #0]
 80001de:	4b2e      	ldr	r3, [pc, #184]	; (8000298 <_start+0x110>)
 80001e0:	e005      	b.n	80001ee <_start+0x66>
 80001e2:	2000      	movs	r0, #0
 80001e4:	6010      	str	r0, [r2, #0]
 80001e6:	3204      	adds	r2, #4
 80001e8:	4293      	cmp	r3, r2
 80001ea:	d8fa      	bhi.n	80001e2 <_start+0x5a>
 80001ec:	460b      	mov	r3, r1
 80001ee:	4a2b      	ldr	r2, [pc, #172]	; (800029c <_start+0x114>)
 80001f0:	4293      	cmp	r3, r2
 80001f2:	d204      	bcs.n	80001fe <_start+0x76>
 80001f4:	4619      	mov	r1, r3
 80001f6:	f851 2b08 	ldr.w	r2, [r1], #8
 80001fa:	685b      	ldr	r3, [r3, #4]
 80001fc:	e7f4      	b.n	80001e8 <_start+0x60>
 80001fe:	4b24      	ldr	r3, [pc, #144]	; (8000290 <_start+0x108>)
 8000200:	681b      	ldr	r3, [r3, #0]
 8000202:	b913      	cbnz	r3, 800020a <_start+0x82>
 8000204:	4b23      	ldr	r3, [pc, #140]	; (8000294 <_start+0x10c>)
 8000206:	681b      	ldr	r3, [r3, #0]
 8000208:	b103      	cbz	r3, 800020c <_start+0x84>
 800020a:	e7fe      	b.n	800020a <_start+0x82>
 800020c:	f001 fe5c 	bl	8001ec8 <__initialize_hardware>
 8000210:	4669      	mov	r1, sp
 8000212:	a801      	add	r0, sp, #4
 8000214:	f001 fbb4 	bl	8001980 <__initialize_args>
 8000218:	4b21      	ldr	r3, [pc, #132]	; (80002a0 <_start+0x118>)
 800021a:	4c22      	ldr	r4, [pc, #136]	; (80002a4 <_start+0x11c>)
 800021c:	1ae4      	subs	r4, r4, r3
 800021e:	10a4      	asrs	r4, r4, #2
 8000220:	2500      	movs	r5, #0
 8000222:	42ac      	cmp	r4, r5
 8000224:	dc14      	bgt.n	8000250 <_start+0xc8>
 8000226:	4b20      	ldr	r3, [pc, #128]	; (80002a8 <_start+0x120>)
 8000228:	4c20      	ldr	r4, [pc, #128]	; (80002ac <_start+0x124>)
 800022a:	1ae4      	subs	r4, r4, r3
 800022c:	10a4      	asrs	r4, r4, #2
 800022e:	2500      	movs	r5, #0
 8000230:	42ac      	cmp	r4, r5
 8000232:	dc13      	bgt.n	800025c <_start+0xd4>
 8000234:	9900      	ldr	r1, [sp, #0]
 8000236:	9801      	ldr	r0, [sp, #4]
 8000238:	f001 fe90 	bl	8001f5c <main>
 800023c:	4605      	mov	r5, r0
 800023e:	4b1c      	ldr	r3, [pc, #112]	; (80002b0 <_start+0x128>)
 8000240:	4c1c      	ldr	r4, [pc, #112]	; (80002b4 <_start+0x12c>)
 8000242:	1ae4      	subs	r4, r4, r3
 8000244:	10a4      	asrs	r4, r4, #2
 8000246:	2c00      	cmp	r4, #0
 8000248:	dc0e      	bgt.n	8000268 <_start+0xe0>
 800024a:	4628      	mov	r0, r5
 800024c:	f001 fb6c 	bl	8001928 <_exit>
 8000250:	4b13      	ldr	r3, [pc, #76]	; (80002a0 <_start+0x118>)
 8000252:	f853 3025 	ldr.w	r3, [r3, r5, lsl #2]
 8000256:	4798      	blx	r3
 8000258:	3501      	adds	r5, #1
 800025a:	e7e2      	b.n	8000222 <_start+0x9a>
 800025c:	4b12      	ldr	r3, [pc, #72]	; (80002a8 <_start+0x120>)
 800025e:	f853 3025 	ldr.w	r3, [r3, r5, lsl #2]
 8000262:	4798      	blx	r3
 8000264:	3501      	adds	r5, #1
 8000266:	e7e3      	b.n	8000230 <_start+0xa8>
 8000268:	3c01      	subs	r4, #1
 800026a:	4b11      	ldr	r3, [pc, #68]	; (80002b0 <_start+0x128>)
 800026c:	f853 3024 	ldr.w	r3, [r3, r4, lsl #2]
 8000270:	4798      	blx	r3
 8000272:	e7e8      	b.n	8000246 <_start+0xbe>
 8000274:	cadebaba 	.word	0xcadebaba
 8000278:	20000000 	.word	0x20000000
 800027c:	20000074 	.word	0x20000074
 8000280:	080003e8 	.word	0x080003e8
 8000284:	08000400 	.word	0x08000400
 8000288:	12345678 	.word	0x12345678
 800028c:	98765432 	.word	0x98765432
 8000290:	20000078 	.word	0x20000078
 8000294:	20002940 	.word	0x20002940
 8000298:	08000400 	.word	0x08000400
 800029c:	08000410 	.word	0x08000410
 80002a0:	08000410 	.word	0x08000410
 80002a4:	08000410 	.word	0x08000410
 80002a8:	08000410 	.word	0x08000410
 80002ac:	08000414 	.word	0x08000414
 80002b0:	08000414 	.word	0x08000414
 80002b4:	08000414 	.word	0x08000414

080002b8 <Reset_Handler>:
 80002b8:	b508      	push	{r3, lr}
 80002ba:	f7ff ff65 	bl	8000188 <_start>

080002be <NMI_Handler>:
 80002be:	be00      	bkpt	0x0000
 80002c0:	e7fe      	b.n	80002c0 <NMI_Handler+0x2>

080002c2 <HardFault_Handler>:
 80002c2:	f01e 0f04 	tst.w	lr, #4
 80002c6:	bf0c      	ite	eq
 80002c8:	f3ef 8008 	mrseq	r0, MSP
 80002cc:	f3ef 8009 	mrsne	r0, PSP
 80002d0:	4671      	mov	r1, lr
 80002d2:	4a41      	ldr	r2, [pc, #260]	; (80003d8 <SysTick_Handler+0x4>)
 80002d4:	4710      	bx	r2

080002d6 <HardFault_Handler_C>:
 80002d6:	e92d 41f0 	stmdb	sp!, {r4, r5, r6, r7, r8, lr}
 80002da:	b082      	sub	sp, #8
 80002dc:	4604      	mov	r4, r0
 80002de:	4688      	mov	r8, r1
 80002e0:	4b12      	ldr	r3, [pc, #72]	; (800032c <HardFault_Handler_C+0x56>)
 80002e2:	6b5e      	ldr	r6, [r3, #52]	; 0x34
 80002e4:	6b9f      	ldr	r7, [r3, #56]	; 0x38
 80002e6:	6a9d      	ldr	r5, [r3, #40]	; 0x28
 80002e8:	6b1b      	ldr	r3, [r3, #48]	; 0x30
 80002ea:	f013 0f02 	tst.w	r3, #2
 80002ee:	d003      	beq.n	80002f8 <HardFault_Handler_C+0x22>
 80002f0:	4b0e      	ldr	r3, [pc, #56]	; (800032c <HardFault_Handler_C+0x56>)
 80002f2:	6adb      	ldr	r3, [r3, #44]	; 0x2c
 80002f4:	2b00      	cmp	r3, #0
 80002f6:	db0c      	blt.n	8000312 <HardFault_Handler_C+0x3c>
 80002f8:	480d      	ldr	r0, [pc, #52]	; (8000330 <HardFault_Handler_C+0x5a>)
 80002fa:	f001 fb7f 	bl	80019fc <trace_printf>
 80002fe:	f8cd 8000 	str.w	r8, [sp]
 8000302:	463b      	mov	r3, r7
 8000304:	4632      	mov	r2, r6
 8000306:	4629      	mov	r1, r5
 8000308:	4620      	mov	r0, r4
 800030a:	f001 fc15 	bl	8001b38 <dumpExceptionStack>
 800030e:	be00      	bkpt	0x0000
 8000310:	e7fe      	b.n	8000310 <HardFault_Handler_C+0x3a>
 8000312:	f64b 61ab 	movw	r1, #48811	; 0xbeab
 8000316:	f001 fc89 	bl	8001c2c <isSemihosting>
 800031a:	2800      	cmp	r0, #0
 800031c:	d0ec      	beq.n	80002f8 <HardFault_Handler_C+0x22>
 800031e:	f04f 4200 	mov.w	r2, #2147483648	; 0x80000000
 8000322:	4b02      	ldr	r3, [pc, #8]	; (800032c <HardFault_Handler_C+0x56>)
 8000324:	62da      	str	r2, [r3, #44]	; 0x2c
 8000326:	b002      	add	sp, #8
 8000328:	e8bd 81f0 	ldmia.w	sp!, {r4, r5, r6, r7, r8, pc}
 800032c:	e000ed00 	.word	0xe000ed00
 8000330:	08002ef4 	.word	0x08002ef4

08000334 <MemManage_Handler>:
 8000334:	be00      	bkpt	0x0000
 8000336:	e7fe      	b.n	8000336 <MemManage_Handler+0x2>

08000338 <BusFault_Handler>:
 8000338:	f01e 0f04 	tst.w	lr, #4
 800033c:	bf0c      	ite	eq
 800033e:	f3ef 8008 	mrseq	r0, MSP
 8000342:	f3ef 8009 	mrsne	r0, PSP
 8000346:	4671      	mov	r1, lr
 8000348:	4a24      	ldr	r2, [pc, #144]	; (80003dc <SysTick_Handler+0x8>)
 800034a:	4710      	bx	r2

0800034c <BusFault_Handler_C>:
 800034c:	e92d 41f0 	stmdb	sp!, {r4, r5, r6, r7, r8, lr}
 8000350:	b082      	sub	sp, #8
 8000352:	4604      	mov	r4, r0
 8000354:	4688      	mov	r8, r1
 8000356:	4b08      	ldr	r3, [pc, #32]	; (8000378 <BusFault_Handler_C+0x2c>)
 8000358:	6b5e      	ldr	r6, [r3, #52]	; 0x34
 800035a:	6b9f      	ldr	r7, [r3, #56]	; 0x38
 800035c:	6a9d      	ldr	r5, [r3, #40]	; 0x28
 800035e:	4807      	ldr	r0, [pc, #28]	; (800037c <BusFault_Handler_C+0x30>)
 8000360:	f001 fb4c 	bl	80019fc <trace_printf>
 8000364:	f8cd 8000 	str.w	r8, [sp]
 8000368:	463b      	mov	r3, r7
 800036a:	4632      	mov	r2, r6
 800036c:	4629      	mov	r1, r5
 800036e:	4620      	mov	r0, r4
 8000370:	f001 fbe2 	bl	8001b38 <dumpExceptionStack>
 8000374:	be00      	bkpt	0x0000
 8000376:	e7fe      	b.n	8000376 <BusFault_Handler_C+0x2a>
 8000378:	e000ed00 	.word	0xe000ed00
 800037c:	08002f04 	.word	0x08002f04

08000380 <UsageFault_Handler>:
 8000380:	f01e 0f04 	tst.w	lr, #4
 8000384:	bf0c      	ite	eq
 8000386:	f3ef 8008 	mrseq	r0, MSP
 800038a:	f3ef 8009 	mrsne	r0, PSP
 800038e:	4671      	mov	r1, lr
 8000390:	4a13      	ldr	r2, [pc, #76]	; (80003e0 <SysTick_Handler+0xc>)
 8000392:	4710      	bx	r2

08000394 <UsageFault_Handler_C>:
 8000394:	e92d 41f0 	stmdb	sp!, {r4, r5, r6, r7, r8, lr}
 8000398:	b082      	sub	sp, #8
 800039a:	4604      	mov	r4, r0
 800039c:	4688      	mov	r8, r1
 800039e:	4b08      	ldr	r3, [pc, #32]	; (80003c0 <UsageFault_Handler_C+0x2c>)
 80003a0:	6b5e      	ldr	r6, [r3, #52]	; 0x34
 80003a2:	6b9f      	ldr	r7, [r3, #56]	; 0x38
 80003a4:	6a9d      	ldr	r5, [r3, #40]	; 0x28
 80003a6:	4807      	ldr	r0, [pc, #28]	; (80003c4 <UsageFault_Handler_C+0x30>)
 80003a8:	f001 fb28 	bl	80019fc <trace_printf>
 80003ac:	f8cd 8000 	str.w	r8, [sp]
 80003b0:	463b      	mov	r3, r7
 80003b2:	4632      	mov	r2, r6
 80003b4:	4629      	mov	r1, r5
 80003b6:	4620      	mov	r0, r4
 80003b8:	f001 fbbe 	bl	8001b38 <dumpExceptionStack>
 80003bc:	be00      	bkpt	0x0000
 80003be:	e7fe      	b.n	80003be <UsageFault_Handler_C+0x2a>
 80003c0:	e000ed00 	.word	0xe000ed00
 80003c4:	08002f10 	.word	0x08002f10

080003c8 <SVC_Handler>:
 80003c8:	be00      	bkpt	0x0000
 80003ca:	e7fe      	b.n	80003ca <SVC_Handler+0x2>

080003cc <DebugMon_Handler>:
 80003cc:	be00      	bkpt	0x0000
 80003ce:	e7fe      	b.n	80003ce <DebugMon_Handler+0x2>

080003d0 <PendSV_Handler>:
 80003d0:	be00      	bkpt	0x0000
 80003d2:	e7fe      	b.n	80003d2 <PendSV_Handler+0x2>

080003d4 <SysTick_Handler>:
 80003d4:	4770      	bx	lr
 80003d6:	0000      	.short	0x0000
 80003d8:	080002d7 	.word	0x080002d7
 80003dc:	0800034d 	.word	0x0800034d
 80003e0:	08000395 	.word	0x08000395

080003e4 <ADC_IRQHandler>:
 80003e4:	be00      	bkpt	0x0000
 80003e6:	e7fe      	b.n	80003e6 <ADC_IRQHandler+0x2>

Disassembly of section .text:

08000420 <HAL_DeInit-0x4>:
 8000420:	4770      	bx	lr
 8000422:	4770      	bx	lr

08000424 <HAL_DeInit>:
 8000424:	b510      	push	{r4, lr}
 8000426:	4b09      	ldr	r3, [pc, #36]	; (800044c <HAL_DeInit+0x28>)
 8000428:	f04f 32ff 	mov.w	r2, #4294967295	; 0xffffffff
 800042c:	621a      	str	r2, [r3, #32]
 800042e:	2400      	movs	r4, #0
 8000430:	621c      	str	r4, [r3, #32]
 8000432:	625a      	str	r2, [r3, #36]	; 0x24
 8000434:	625c      	str	r4, [r3, #36]	; 0x24
 8000436:	611a      	str	r2, [r3, #16]
 8000438:	611c      	str	r4, [r3, #16]
 800043a:	615a      	str	r2, [r3, #20]
 800043c:	615c      	str	r4, [r3, #20]
 800043e:	619a      	str	r2, [r3, #24]
 8000440:	619c      	str	r4, [r3, #24]
 8000442:	f001 fdc0 	bl	8001fc6 <HAL_MspDeInit>
 8000446:	4620      	mov	r0, r4
 8000448:	bd10      	pop	{r4, pc}
 800044a:	bf00      	nop
 800044c:	40023800 	.word	0x40023800

08000450 <HAL_InitTick>:
 8000450:	b510      	push	{r4, lr}
 8000452:	4604      	mov	r4, r0
 8000454:	4b07      	ldr	r3, [pc, #28]	; (8000474 <HAL_InitTick+0x24>)
 8000456:	6818      	ldr	r0, [r3, #0]
 8000458:	4b07      	ldr	r3, [pc, #28]	; (8000478 <HAL_InitTick+0x28>)
 800045a:	fba3 3000 	umull	r3, r0, r3, r0
 800045e:	0980      	lsrs	r0, r0, #6
 8000460:	f000 f950 	bl	8000704 <HAL_SYSTICK_Config>
 8000464:	2200      	movs	r2, #0
 8000466:	4621      	mov	r1, r4
 8000468:	f04f 30ff 	mov.w	r0, #4294967295	; 0xffffffff
 800046c:	f000 f8c6 	bl	80005fc <HAL_NVIC_SetPriority>
 8000470:	2000      	movs	r0, #0
 8000472:	bd10      	pop	{r4, pc}
 8000474:	2000000c 	.word	0x2000000c
 8000478:	10624dd3 	.word	0x10624dd3

0800047c <HAL_Init>:
 800047c:	b508      	push	{r3, lr}
 800047e:	4b0b      	ldr	r3, [pc, #44]	; (80004ac <HAL_Init+0x30>)
 8000480:	681a      	ldr	r2, [r3, #0]
 8000482:	f442 7200 	orr.w	r2, r2, #512	; 0x200
 8000486:	601a      	str	r2, [r3, #0]
 8000488:	681a      	ldr	r2, [r3, #0]
 800048a:	f442 6280 	orr.w	r2, r2, #1024	; 0x400
 800048e:	601a      	str	r2, [r3, #0]
 8000490:	681a      	ldr	r2, [r3, #0]
 8000492:	f442 7280 	orr.w	r2, r2, #256	; 0x100
 8000496:	601a      	str	r2, [r3, #0]
 8000498:	2003      	movs	r0, #3
 800049a:	f000 f891 	bl	80005c0 <HAL_NVIC_SetPriorityGrouping>
 800049e:	200f      	movs	r0, #15
 80004a0:	f7ff ffd6 	bl	8000450 <HAL_InitTick>
 80004a4:	f001 fd8e 	bl	8001fc4 <HAL_MspInit>
 80004a8:	2000      	movs	r0, #0
 80004aa:	bd08      	pop	{r3, pc}
 80004ac:	40023c00 	.word	0x40023c00

080004b0 <HAL_IncTick>:
 80004b0:	4a02      	ldr	r2, [pc, #8]	; (80004bc <HAL_IncTick+0xc>)
 80004b2:	6813      	ldr	r3, [r2, #0]
 80004b4:	3301      	adds	r3, #1
 80004b6:	6013      	str	r3, [r2, #0]
 80004b8:	4770      	bx	lr
 80004ba:	bf00      	nop
 80004bc:	2000014c 	.word	0x2000014c

080004c0 <HAL_GetTick>:
 80004c0:	4b01      	ldr	r3, [pc, #4]	; (80004c8 <HAL_GetTick+0x8>)
 80004c2:	6818      	ldr	r0, [r3, #0]
 80004c4:	4770      	bx	lr
 80004c6:	bf00      	nop
 80004c8:	2000014c 	.word	0x2000014c

080004cc <HAL_Delay>:
 80004cc:	b510      	push	{r4, lr}
 80004ce:	b082      	sub	sp, #8
 80004d0:	9001      	str	r0, [sp, #4]
 80004d2:	f7ff fff5 	bl	80004c0 <HAL_GetTick>
 80004d6:	4604      	mov	r4, r0
 80004d8:	f7ff fff2 	bl	80004c0 <HAL_GetTick>
 80004dc:	1b00      	subs	r0, r0, r4
 80004de:	9b01      	ldr	r3, [sp, #4]
 80004e0:	4298      	cmp	r0, r3
 80004e2:	d3f9      	bcc.n	80004d8 <HAL_Delay+0xc>
 80004e4:	b002      	add	sp, #8
 80004e6:	bd10      	pop	{r4, pc}

080004e8 <HAL_SuspendTick>:
 80004e8:	4a02      	ldr	r2, [pc, #8]	; (80004f4 <HAL_SuspendTick+0xc>)
 80004ea:	6813      	ldr	r3, [r2, #0]
 80004ec:	f023 0302 	bic.w	r3, r3, #2
 80004f0:	6013      	str	r3, [r2, #0]
 80004f2:	4770      	bx	lr
 80004f4:	e000e010 	.word	0xe000e010

080004f8 <HAL_ResumeTick>:
 80004f8:	4a02      	ldr	r2, [pc, #8]	; (8000504 <HAL_ResumeTick+0xc>)
 80004fa:	6813      	ldr	r3, [r2, #0]
 80004fc:	f043 0302 	orr.w	r3, r3, #2
 8000500:	6013      	str	r3, [r2, #0]
 8000502:	4770      	bx	lr
 8000504:	e000e010 	.word	0xe000e010

08000508 <HAL_GetHalVersion>:
 8000508:	4800      	ldr	r0, [pc, #0]	; (800050c <HAL_GetHalVersion+0x4>)
 800050a:	4770      	bx	lr
 800050c:	01050000 	.word	0x01050000

08000510 <HAL_GetREVID>:
 8000510:	4b01      	ldr	r3, [pc, #4]	; (8000518 <HAL_GetREVID+0x8>)
 8000512:	6818      	ldr	r0, [r3, #0]
 8000514:	0c00      	lsrs	r0, r0, #16
 8000516:	4770      	bx	lr
 8000518:	e0042000 	.word	0xe0042000

0800051c <HAL_GetDEVID>:
 800051c:	4b02      	ldr	r3, [pc, #8]	; (8000528 <HAL_GetDEVID+0xc>)
 800051e:	6818      	ldr	r0, [r3, #0]
 8000520:	f3c0 000b 	ubfx	r0, r0, #0, #12
 8000524:	4770      	bx	lr
 8000526:	bf00      	nop
 8000528:	e0042000 	.word	0xe0042000

0800052c <HAL_DBGMCU_EnableDBGSleepMode>:
 800052c:	4a02      	ldr	r2, [pc, #8]	; (8000538 <HAL_DBGMCU_EnableDBGSleepMode+0xc>)
 800052e:	6853      	ldr	r3, [r2, #4]
 8000530:	f043 0301 	orr.w	r3, r3, #1
 8000534:	6053      	str	r3, [r2, #4]
 8000536:	4770      	bx	lr
 8000538:	e0042000 	.word	0xe0042000

0800053c <HAL_DBGMCU_DisableDBGSleepMode>:
 800053c:	4a02      	ldr	r2, [pc, #8]	; (8000548 <HAL_DBGMCU_DisableDBGSleepMode+0xc>)
 800053e:	6853      	ldr	r3, [r2, #4]
 8000540:	f023 0301 	bic.w	r3, r3, #1
 8000544:	6053      	str	r3, [r2, #4]
 8000546:	4770      	bx	lr
 8000548:	e0042000 	.word	0xe0042000

0800054c <HAL_DBGMCU_EnableDBGStopMode>:
 800054c:	4a02      	ldr	r2, [pc, #8]	; (8000558 <HAL_DBGMCU_EnableDBGStopMode+0xc>)
 800054e:	6853      	ldr	r3, [r2, #4]
 8000550:	f043 0302 	orr.w	r3, r3, #2
 8000554:	6053      	str	r3, [r2, #4]
 8000556:	4770      	bx	lr
 8000558:	e0042000 	.word	0xe0042000

0800055c <HAL_DBGMCU_DisableDBGStopMode>:
 800055c:	4a02      	ldr	r2, [pc, #8]	; (8000568 <HAL_DBGMCU_DisableDBGStopMode+0xc>)
 800055e:	6853      	ldr	r3, [r2, #4]
 8000560:	f023 0302 	bic.w	r3, r3, #2
 8000564:	6053      	str	r3, [r2, #4]
 8000566:	4770      	bx	lr
 8000568:	e0042000 	.word	0xe0042000

0800056c <HAL_DBGMCU_EnableDBGStandbyMode>:
 800056c:	4a02      	ldr	r2, [pc, #8]	; (8000578 <HAL_DBGMCU_EnableDBGStandbyMode+0xc>)
 800056e:	6853      	ldr	r3, [r2, #4]
 8000570:	f043 0304 	orr.w	r3, r3, #4
 8000574:	6053      	str	r3, [r2, #4]
 8000576:	4770      	bx	lr
 8000578:	e0042000 	.word	0xe0042000

0800057c <HAL_DBGMCU_DisableDBGStandbyMode>:
 800057c:	4a02      	ldr	r2, [pc, #8]	; (8000588 <HAL_DBGMCU_DisableDBGStandbyMode+0xc>)
 800057e:	6853      	ldr	r3, [r2, #4]
 8000580:	f023 0304 	bic.w	r3, r3, #4
 8000584:	6053      	str	r3, [r2, #4]
 8000586:	4770      	bx	lr
 8000588:	e0042000 	.word	0xe0042000

0800058c <HAL_EnableCompensationCell>:
 800058c:	2101      	movs	r1, #1
 800058e:	fa91 f2a1 	rbit	r2, r1
 8000592:	fab2 f282 	clz	r2, r2
 8000596:	4b02      	ldr	r3, [pc, #8]	; (80005a0 <HAL_EnableCompensationCell+0x14>)
 8000598:	4413      	add	r3, r2
 800059a:	009b      	lsls	r3, r3, #2
 800059c:	6019      	str	r1, [r3, #0]
 800059e:	4770      	bx	lr
 80005a0:	1089c100 	.word	0x1089c100

080005a4 <HAL_DisableCompensationCell>:
 80005a4:	2201      	movs	r2, #1
 80005a6:	fa92 f2a2 	rbit	r2, r2
 80005aa:	fab2 f282 	clz	r2, r2
 80005ae:	4b03      	ldr	r3, [pc, #12]	; (80005bc <HAL_DisableCompensationCell+0x18>)
 80005b0:	4413      	add	r3, r2
 80005b2:	009b      	lsls	r3, r3, #2
 80005b4:	2200      	movs	r2, #0
 80005b6:	601a      	str	r2, [r3, #0]
 80005b8:	4770      	bx	lr
 80005ba:	bf00      	nop
 80005bc:	1089c100 	.word	0x1089c100

080005c0 <HAL_NVIC_SetPriorityGrouping>:
 80005c0:	b510      	push	{r4, lr}
 80005c2:	4604      	mov	r4, r0
 80005c4:	1ec3      	subs	r3, r0, #3
 80005c6:	2b04      	cmp	r3, #4
 80005c8:	d80f      	bhi.n	80005ea <HAL_NVIC_SetPriorityGrouping+0x2a>
 80005ca:	4a0a      	ldr	r2, [pc, #40]	; (80005f4 <HAL_NVIC_SetPriorityGrouping+0x34>)
 80005cc:	68d3      	ldr	r3, [r2, #12]
 80005ce:	f423 63e0 	bic.w	r3, r3, #1792	; 0x700
 80005d2:	041b      	lsls	r3, r3, #16
 80005d4:	0c1b      	lsrs	r3, r3, #16
 80005d6:	0224      	lsls	r4, r4, #8
 80005d8:	f404 64e0 	and.w	r4, r4, #1792	; 0x700
 80005dc:	4323      	orrs	r3, r4
 80005de:	f043 63bf 	orr.w	r3, r3, #100139008	; 0x5f80000
 80005e2:	f443 3300 	orr.w	r3, r3, #131072	; 0x20000
 80005e6:	60d3      	str	r3, [r2, #12]
 80005e8:	bd10      	pop	{r4, pc}
 80005ea:	21a4      	movs	r1, #164	; 0xa4
 80005ec:	4802      	ldr	r0, [pc, #8]	; (80005f8 <HAL_NVIC_SetPriorityGrouping+0x38>)
 80005ee:	f001 f9fb 	bl	80019e8 <assert_failed>
 80005f2:	e7ea      	b.n	80005ca <HAL_NVIC_SetPriorityGrouping+0xa>
 80005f4:	e000ed00 	.word	0xe000ed00
 80005f8:	08002c88 	.word	0x08002c88

080005fc <HAL_NVIC_SetPriority>:
 80005fc:	b570      	push	{r4, r5, r6, lr}
 80005fe:	4605      	mov	r5, r0
 8000600:	460c      	mov	r4, r1
 8000602:	4616      	mov	r6, r2
 8000604:	2a0f      	cmp	r2, #15
 8000606:	d824      	bhi.n	8000652 <HAL_NVIC_SetPriority+0x56>
 8000608:	2c0f      	cmp	r4, #15
 800060a:	d827      	bhi.n	800065c <HAL_NVIC_SetPriority+0x60>
 800060c:	4b1a      	ldr	r3, [pc, #104]	; (8000678 <HAL_NVIC_SetPriority+0x7c>)
 800060e:	68db      	ldr	r3, [r3, #12]
 8000610:	f3c3 2302 	ubfx	r3, r3, #8, #3
 8000614:	f1c3 0207 	rsb	r2, r3, #7
 8000618:	2a04      	cmp	r2, #4
 800061a:	bf28      	it	cs
 800061c:	2204      	movcs	r2, #4
 800061e:	1d19      	adds	r1, r3, #4
 8000620:	2906      	cmp	r1, #6
 8000622:	d920      	bls.n	8000666 <HAL_NVIC_SetPriority+0x6a>
 8000624:	3b03      	subs	r3, #3
 8000626:	2101      	movs	r1, #1
 8000628:	fa01 f202 	lsl.w	r2, r1, r2
 800062c:	3a01      	subs	r2, #1
 800062e:	4014      	ands	r4, r2
 8000630:	409c      	lsls	r4, r3
 8000632:	fa01 f303 	lsl.w	r3, r1, r3
 8000636:	3b01      	subs	r3, #1
 8000638:	4033      	ands	r3, r6
 800063a:	431c      	orrs	r4, r3
 800063c:	2d00      	cmp	r5, #0
 800063e:	db14      	blt.n	800066a <HAL_NVIC_SetPriority+0x6e>
 8000640:	0124      	lsls	r4, r4, #4
 8000642:	b2e4      	uxtb	r4, r4
 8000644:	f105 4560 	add.w	r5, r5, #3758096384	; 0xe0000000
 8000648:	f505 4561 	add.w	r5, r5, #57600	; 0xe100
 800064c:	f885 4300 	strb.w	r4, [r5, #768]	; 0x300
 8000650:	bd70      	pop	{r4, r5, r6, pc}
 8000652:	21bc      	movs	r1, #188	; 0xbc
 8000654:	4809      	ldr	r0, [pc, #36]	; (800067c <HAL_NVIC_SetPriority+0x80>)
 8000656:	f001 f9c7 	bl	80019e8 <assert_failed>
 800065a:	e7d5      	b.n	8000608 <HAL_NVIC_SetPriority+0xc>
 800065c:	21bd      	movs	r1, #189	; 0xbd
 800065e:	4807      	ldr	r0, [pc, #28]	; (800067c <HAL_NVIC_SetPriority+0x80>)
 8000660:	f001 f9c2 	bl	80019e8 <assert_failed>
 8000664:	e7d2      	b.n	800060c <HAL_NVIC_SetPriority+0x10>
 8000666:	2300      	movs	r3, #0
 8000668:	e7dd      	b.n	8000626 <HAL_NVIC_SetPriority+0x2a>
 800066a:	f005 050f 	and.w	r5, r5, #15
 800066e:	0124      	lsls	r4, r4, #4
 8000670:	b2e4      	uxtb	r4, r4
 8000672:	4b03      	ldr	r3, [pc, #12]	; (8000680 <HAL_NVIC_SetPriority+0x84>)
 8000674:	555c      	strb	r4, [r3, r5]
 8000676:	bd70      	pop	{r4, r5, r6, pc}
 8000678:	e000ed00 	.word	0xe000ed00
 800067c:	08002c88 	.word	0x08002c88
 8000680:	e000ed14 	.word	0xe000ed14

08000684 <HAL_NVIC_EnableIRQ>:
 8000684:	b510      	push	{r4, lr}
 8000686:	1e04      	subs	r4, r0, #0
 8000688:	db09      	blt.n	800069e <HAL_NVIC_EnableIRQ+0x1a>
 800068a:	0962      	lsrs	r2, r4, #5
 800068c:	f004 041f 	and.w	r4, r4, #31
 8000690:	2301      	movs	r3, #1
 8000692:	fa03 f404 	lsl.w	r4, r3, r4
 8000696:	4b04      	ldr	r3, [pc, #16]	; (80006a8 <HAL_NVIC_EnableIRQ+0x24>)
 8000698:	f843 4022 	str.w	r4, [r3, r2, lsl #2]
 800069c:	bd10      	pop	{r4, pc}
 800069e:	21d0      	movs	r1, #208	; 0xd0
 80006a0:	4802      	ldr	r0, [pc, #8]	; (80006ac <HAL_NVIC_EnableIRQ+0x28>)
 80006a2:	f001 f9a1 	bl	80019e8 <assert_failed>
 80006a6:	e7f0      	b.n	800068a <HAL_NVIC_EnableIRQ+0x6>
 80006a8:	e000e100 	.word	0xe000e100
 80006ac:	08002c88 	.word	0x08002c88

080006b0 <HAL_NVIC_DisableIRQ>:
 80006b0:	b510      	push	{r4, lr}
 80006b2:	1e04      	subs	r4, r0, #0
 80006b4:	db0a      	blt.n	80006cc <HAL_NVIC_DisableIRQ+0x1c>
 80006b6:	0963      	lsrs	r3, r4, #5
 80006b8:	f004 041f 	and.w	r4, r4, #31
 80006bc:	2201      	movs	r2, #1
 80006be:	fa02 f404 	lsl.w	r4, r2, r4
 80006c2:	3320      	adds	r3, #32
 80006c4:	4a04      	ldr	r2, [pc, #16]	; (80006d8 <HAL_NVIC_DisableIRQ+0x28>)
 80006c6:	f842 4023 	str.w	r4, [r2, r3, lsl #2]
 80006ca:	bd10      	pop	{r4, pc}
 80006cc:	21e0      	movs	r1, #224	; 0xe0
 80006ce:	4803      	ldr	r0, [pc, #12]	; (80006dc <HAL_NVIC_DisableIRQ+0x2c>)
 80006d0:	f001 f98a 	bl	80019e8 <assert_failed>
 80006d4:	e7ef      	b.n	80006b6 <HAL_NVIC_DisableIRQ+0x6>
 80006d6:	bf00      	nop
 80006d8:	e000e100 	.word	0xe000e100
 80006dc:	08002c88 	.word	0x08002c88

080006e0 <HAL_NVIC_SystemReset>:
 80006e0:	f3bf 8f4f 	dsb	sy
 80006e4:	4905      	ldr	r1, [pc, #20]	; (80006fc <HAL_NVIC_SystemReset+0x1c>)
 80006e6:	68ca      	ldr	r2, [r1, #12]
 80006e8:	f402 62e0 	and.w	r2, r2, #1792	; 0x700
 80006ec:	4b04      	ldr	r3, [pc, #16]	; (8000700 <HAL_NVIC_SystemReset+0x20>)
 80006ee:	4313      	orrs	r3, r2
 80006f0:	60cb      	str	r3, [r1, #12]
 80006f2:	f3bf 8f4f 	dsb	sy
 80006f6:	bf00      	nop
 80006f8:	e7fd      	b.n	80006f6 <HAL_NVIC_SystemReset+0x16>
 80006fa:	bf00      	nop
 80006fc:	e000ed00 	.word	0xe000ed00
 8000700:	05fa0004 	.word	0x05fa0004

08000704 <HAL_SYSTICK_Config>:
 8000704:	3801      	subs	r0, #1
 8000706:	f1b0 7f80 	cmp.w	r0, #16777216	; 0x1000000
 800070a:	d20a      	bcs.n	8000722 <HAL_SYSTICK_Config+0x1e>
 800070c:	4b06      	ldr	r3, [pc, #24]	; (8000728 <HAL_SYSTICK_Config+0x24>)
 800070e:	6058      	str	r0, [r3, #4]
 8000710:	21f0      	movs	r1, #240	; 0xf0
 8000712:	4a06      	ldr	r2, [pc, #24]	; (800072c <HAL_SYSTICK_Config+0x28>)
 8000714:	f882 1023 	strb.w	r1, [r2, #35]	; 0x23
 8000718:	2000      	movs	r0, #0
 800071a:	6098      	str	r0, [r3, #8]
 800071c:	2207      	movs	r2, #7
 800071e:	601a      	str	r2, [r3, #0]
 8000720:	4770      	bx	lr
 8000722:	2001      	movs	r0, #1
 8000724:	4770      	bx	lr
 8000726:	bf00      	nop
 8000728:	e000e010 	.word	0xe000e010
 800072c:	e000ed00 	.word	0xe000ed00

08000730 <HAL_MPU_ConfigRegion>:
 8000730:	b510      	push	{r4, lr}
 8000732:	4604      	mov	r4, r0
 8000734:	7843      	ldrb	r3, [r0, #1]
 8000736:	2b07      	cmp	r3, #7
 8000738:	d862      	bhi.n	8000800 <HAL_MPU_ConfigRegion+0xd0>
 800073a:	7823      	ldrb	r3, [r4, #0]
 800073c:	2b01      	cmp	r3, #1
 800073e:	d904      	bls.n	800074a <HAL_MPU_ConfigRegion+0x1a>
 8000740:	f44f 718d 	mov.w	r1, #282	; 0x11a
 8000744:	483d      	ldr	r0, [pc, #244]	; (800083c <HAL_MPU_ConfigRegion+0x10c>)
 8000746:	f001 f94f 	bl	80019e8 <assert_failed>
 800074a:	7862      	ldrb	r2, [r4, #1]
 800074c:	4b3c      	ldr	r3, [pc, #240]	; (8000840 <HAL_MPU_ConfigRegion+0x110>)
 800074e:	609a      	str	r2, [r3, #8]
 8000750:	7823      	ldrb	r3, [r4, #0]
 8000752:	2b00      	cmp	r3, #0
 8000754:	d06c      	beq.n	8000830 <HAL_MPU_ConfigRegion+0x100>
 8000756:	7b23      	ldrb	r3, [r4, #12]
 8000758:	2b01      	cmp	r3, #1
 800075a:	d904      	bls.n	8000766 <HAL_MPU_ConfigRegion+0x36>
 800075c:	f44f 7191 	mov.w	r1, #290	; 0x122
 8000760:	4836      	ldr	r0, [pc, #216]	; (800083c <HAL_MPU_ConfigRegion+0x10c>)
 8000762:	f001 f941 	bl	80019e8 <assert_failed>
 8000766:	7ae3      	ldrb	r3, [r4, #11]
 8000768:	2b03      	cmp	r3, #3
 800076a:	d908      	bls.n	800077e <HAL_MPU_ConfigRegion+0x4e>
 800076c:	2b05      	cmp	r3, #5
 800076e:	d006      	beq.n	800077e <HAL_MPU_ConfigRegion+0x4e>
 8000770:	2b06      	cmp	r3, #6
 8000772:	d004      	beq.n	800077e <HAL_MPU_ConfigRegion+0x4e>
 8000774:	f240 1123 	movw	r1, #291	; 0x123
 8000778:	4830      	ldr	r0, [pc, #192]	; (800083c <HAL_MPU_ConfigRegion+0x10c>)
 800077a:	f001 f935 	bl	80019e8 <assert_failed>
 800077e:	7aa3      	ldrb	r3, [r4, #10]
 8000780:	2b02      	cmp	r3, #2
 8000782:	d843      	bhi.n	800080c <HAL_MPU_ConfigRegion+0xdc>
 8000784:	7b63      	ldrb	r3, [r4, #13]
 8000786:	2b01      	cmp	r3, #1
 8000788:	d904      	bls.n	8000794 <HAL_MPU_ConfigRegion+0x64>
 800078a:	f240 1125 	movw	r1, #293	; 0x125
 800078e:	482b      	ldr	r0, [pc, #172]	; (800083c <HAL_MPU_ConfigRegion+0x10c>)
 8000790:	f001 f92a 	bl	80019e8 <assert_failed>
 8000794:	7ba3      	ldrb	r3, [r4, #14]
 8000796:	2b01      	cmp	r3, #1
 8000798:	d904      	bls.n	80007a4 <HAL_MPU_ConfigRegion+0x74>
 800079a:	f44f 7193 	mov.w	r1, #294	; 0x126
 800079e:	4827      	ldr	r0, [pc, #156]	; (800083c <HAL_MPU_ConfigRegion+0x10c>)
 80007a0:	f001 f922 	bl	80019e8 <assert_failed>
 80007a4:	7be3      	ldrb	r3, [r4, #15]
 80007a6:	2b01      	cmp	r3, #1
 80007a8:	d904      	bls.n	80007b4 <HAL_MPU_ConfigRegion+0x84>
 80007aa:	f240 1127 	movw	r1, #295	; 0x127
 80007ae:	4823      	ldr	r0, [pc, #140]	; (800083c <HAL_MPU_ConfigRegion+0x10c>)
 80007b0:	f001 f91a 	bl	80019e8 <assert_failed>
 80007b4:	7a63      	ldrb	r3, [r4, #9]
 80007b6:	2bff      	cmp	r3, #255	; 0xff
 80007b8:	d02e      	beq.n	8000818 <HAL_MPU_ConfigRegion+0xe8>
 80007ba:	7a23      	ldrb	r3, [r4, #8]
 80007bc:	3b04      	subs	r3, #4
 80007be:	b2db      	uxtb	r3, r3
 80007c0:	2b1b      	cmp	r3, #27
 80007c2:	d82f      	bhi.n	8000824 <HAL_MPU_ConfigRegion+0xf4>
 80007c4:	6863      	ldr	r3, [r4, #4]
 80007c6:	4a1e      	ldr	r2, [pc, #120]	; (8000840 <HAL_MPU_ConfigRegion+0x110>)
 80007c8:	60d3      	str	r3, [r2, #12]
 80007ca:	7b21      	ldrb	r1, [r4, #12]
 80007cc:	7ae3      	ldrb	r3, [r4, #11]
 80007ce:	061b      	lsls	r3, r3, #24
 80007d0:	ea43 7301 	orr.w	r3, r3, r1, lsl #28
 80007d4:	7aa1      	ldrb	r1, [r4, #10]
 80007d6:	ea43 43c1 	orr.w	r3, r3, r1, lsl #19
 80007da:	7b61      	ldrb	r1, [r4, #13]
 80007dc:	ea43 4381 	orr.w	r3, r3, r1, lsl #18
 80007e0:	7ba1      	ldrb	r1, [r4, #14]
 80007e2:	ea43 4341 	orr.w	r3, r3, r1, lsl #17
 80007e6:	7be1      	ldrb	r1, [r4, #15]
 80007e8:	ea43 4301 	orr.w	r3, r3, r1, lsl #16
 80007ec:	7a61      	ldrb	r1, [r4, #9]
 80007ee:	ea43 2301 	orr.w	r3, r3, r1, lsl #8
 80007f2:	7a21      	ldrb	r1, [r4, #8]
 80007f4:	ea43 0341 	orr.w	r3, r3, r1, lsl #1
 80007f8:	7821      	ldrb	r1, [r4, #0]
 80007fa:	430b      	orrs	r3, r1
 80007fc:	6113      	str	r3, [r2, #16]
 80007fe:	bd10      	pop	{r4, pc}
 8000800:	f240 1119 	movw	r1, #281	; 0x119
 8000804:	480d      	ldr	r0, [pc, #52]	; (800083c <HAL_MPU_ConfigRegion+0x10c>)
 8000806:	f001 f8ef 	bl	80019e8 <assert_failed>
 800080a:	e796      	b.n	800073a <HAL_MPU_ConfigRegion+0xa>
 800080c:	f44f 7192 	mov.w	r1, #292	; 0x124
 8000810:	480a      	ldr	r0, [pc, #40]	; (800083c <HAL_MPU_ConfigRegion+0x10c>)
 8000812:	f001 f8e9 	bl	80019e8 <assert_failed>
 8000816:	e7b5      	b.n	8000784 <HAL_MPU_ConfigRegion+0x54>
 8000818:	f44f 7194 	mov.w	r1, #296	; 0x128
 800081c:	4807      	ldr	r0, [pc, #28]	; (800083c <HAL_MPU_ConfigRegion+0x10c>)
 800081e:	f001 f8e3 	bl	80019e8 <assert_failed>
 8000822:	e7ca      	b.n	80007ba <HAL_MPU_ConfigRegion+0x8a>
 8000824:	f240 1129 	movw	r1, #297	; 0x129
 8000828:	4804      	ldr	r0, [pc, #16]	; (800083c <HAL_MPU_ConfigRegion+0x10c>)
 800082a:	f001 f8dd 	bl	80019e8 <assert_failed>
 800082e:	e7c9      	b.n	80007c4 <HAL_MPU_ConfigRegion+0x94>
 8000830:	4b03      	ldr	r3, [pc, #12]	; (8000840 <HAL_MPU_ConfigRegion+0x110>)
 8000832:	2200      	movs	r2, #0
 8000834:	60da      	str	r2, [r3, #12]
 8000836:	611a      	str	r2, [r3, #16]
 8000838:	bd10      	pop	{r4, pc}
 800083a:	bf00      	nop
 800083c:	08002c88 	.word	0x08002c88
 8000840:	e000ed90 	.word	0xe000ed90

08000844 <HAL_NVIC_GetPriorityGrouping>:
 8000844:	4b02      	ldr	r3, [pc, #8]	; (8000850 <HAL_NVIC_GetPriorityGrouping+0xc>)
 8000846:	68d8      	ldr	r0, [r3, #12]
 8000848:	f3c0 2002 	ubfx	r0, r0, #8, #3
 800084c:	4770      	bx	lr
 800084e:	bf00      	nop
 8000850:	e000ed00 	.word	0xe000ed00

08000854 <HAL_NVIC_GetPriority>:
 8000854:	b5f8      	push	{r3, r4, r5, r6, r7, lr}
 8000856:	4607      	mov	r7, r0
 8000858:	460c      	mov	r4, r1
 800085a:	4616      	mov	r6, r2
 800085c:	461d      	mov	r5, r3
 800085e:	1ecb      	subs	r3, r1, #3
 8000860:	2b04      	cmp	r3, #4
 8000862:	d821      	bhi.n	80008a8 <HAL_NVIC_GetPriority+0x54>
 8000864:	2f00      	cmp	r7, #0
 8000866:	db25      	blt.n	80008b4 <HAL_NVIC_GetPriority+0x60>
 8000868:	f107 4760 	add.w	r7, r7, #3758096384	; 0xe0000000
 800086c:	f507 4761 	add.w	r7, r7, #57600	; 0xe100
 8000870:	f897 1300 	ldrb.w	r1, [r7, #768]	; 0x300
 8000874:	0908      	lsrs	r0, r1, #4
 8000876:	f004 0107 	and.w	r1, r4, #7
 800087a:	f1c1 0207 	rsb	r2, r1, #7
 800087e:	2a04      	cmp	r2, #4
 8000880:	bf28      	it	cs
 8000882:	2204      	movcs	r2, #4
 8000884:	1d0b      	adds	r3, r1, #4
 8000886:	2b06      	cmp	r3, #6
 8000888:	d91a      	bls.n	80008c0 <HAL_NVIC_GetPriority+0x6c>
 800088a:	3903      	subs	r1, #3
 800088c:	fa20 f401 	lsr.w	r4, r0, r1
 8000890:	2301      	movs	r3, #1
 8000892:	fa03 f202 	lsl.w	r2, r3, r2
 8000896:	3a01      	subs	r2, #1
 8000898:	4022      	ands	r2, r4
 800089a:	6032      	str	r2, [r6, #0]
 800089c:	fa03 f101 	lsl.w	r1, r3, r1
 80008a0:	3901      	subs	r1, #1
 80008a2:	4001      	ands	r1, r0
 80008a4:	6029      	str	r1, [r5, #0]
 80008a6:	bdf8      	pop	{r3, r4, r5, r6, r7, pc}
 80008a8:	f44f 71b0 	mov.w	r1, #352	; 0x160
 80008ac:	4805      	ldr	r0, [pc, #20]	; (80008c4 <HAL_NVIC_GetPriority+0x70>)
 80008ae:	f001 f89b 	bl	80019e8 <assert_failed>
 80008b2:	e7d7      	b.n	8000864 <HAL_NVIC_GetPriority+0x10>
 80008b4:	f007 070f 	and.w	r7, r7, #15
 80008b8:	4b03      	ldr	r3, [pc, #12]	; (80008c8 <HAL_NVIC_GetPriority+0x74>)
 80008ba:	5dd9      	ldrb	r1, [r3, r7]
 80008bc:	0908      	lsrs	r0, r1, #4
 80008be:	e7da      	b.n	8000876 <HAL_NVIC_GetPriority+0x22>
 80008c0:	2100      	movs	r1, #0
 80008c2:	e7e3      	b.n	800088c <HAL_NVIC_GetPriority+0x38>
 80008c4:	08002c88 	.word	0x08002c88
 80008c8:	e000ed14 	.word	0xe000ed14

080008cc <HAL_NVIC_SetPendingIRQ>:
 80008cc:	b510      	push	{r4, lr}
 80008ce:	1e04      	subs	r4, r0, #0
 80008d0:	db0a      	blt.n	80008e8 <HAL_NVIC_SetPendingIRQ+0x1c>
 80008d2:	0963      	lsrs	r3, r4, #5
 80008d4:	f004 041f 	and.w	r4, r4, #31
 80008d8:	2201      	movs	r2, #1
 80008da:	fa02 f404 	lsl.w	r4, r2, r4
 80008de:	3340      	adds	r3, #64	; 0x40
 80008e0:	4a04      	ldr	r2, [pc, #16]	; (80008f4 <HAL_NVIC_SetPendingIRQ+0x28>)
 80008e2:	f842 4023 	str.w	r4, [r2, r3, lsl #2]
 80008e6:	bd10      	pop	{r4, pc}
 80008e8:	f240 116f 	movw	r1, #367	; 0x16f
 80008ec:	4802      	ldr	r0, [pc, #8]	; (80008f8 <HAL_NVIC_SetPendingIRQ+0x2c>)
 80008ee:	f001 f87b 	bl	80019e8 <assert_failed>
 80008f2:	e7ee      	b.n	80008d2 <HAL_NVIC_SetPendingIRQ+0x6>
 80008f4:	e000e100 	.word	0xe000e100
 80008f8:	08002c88 	.word	0x08002c88

080008fc <HAL_NVIC_GetPendingIRQ>:
 80008fc:	b510      	push	{r4, lr}
 80008fe:	1e04      	subs	r4, r0, #0
 8000900:	db0a      	blt.n	8000918 <HAL_NVIC_GetPendingIRQ+0x1c>
 8000902:	0963      	lsrs	r3, r4, #5
 8000904:	3340      	adds	r3, #64	; 0x40
 8000906:	4a07      	ldr	r2, [pc, #28]	; (8000924 <HAL_NVIC_GetPendingIRQ+0x28>)
 8000908:	f852 0023 	ldr.w	r0, [r2, r3, lsl #2]
 800090c:	f004 041f 	and.w	r4, r4, #31
 8000910:	40e0      	lsrs	r0, r4
 8000912:	f000 0001 	and.w	r0, r0, #1
 8000916:	bd10      	pop	{r4, pc}
 8000918:	f240 1181 	movw	r1, #385	; 0x181
 800091c:	4802      	ldr	r0, [pc, #8]	; (8000928 <HAL_NVIC_GetPendingIRQ+0x2c>)
 800091e:	f001 f863 	bl	80019e8 <assert_failed>
 8000922:	e7ee      	b.n	8000902 <HAL_NVIC_GetPendingIRQ+0x6>
 8000924:	e000e100 	.word	0xe000e100
 8000928:	08002c88 	.word	0x08002c88

0800092c <HAL_NVIC_ClearPendingIRQ>:
 800092c:	b510      	push	{r4, lr}
 800092e:	1e04      	subs	r4, r0, #0
 8000930:	db0a      	blt.n	8000948 <HAL_NVIC_ClearPendingIRQ+0x1c>
 8000932:	0963      	lsrs	r3, r4, #5
 8000934:	f004 041f 	and.w	r4, r4, #31
 8000938:	2201      	movs	r2, #1
 800093a:	fa02 f404 	lsl.w	r4, r2, r4
 800093e:	3360      	adds	r3, #96	; 0x60
 8000940:	4a04      	ldr	r2, [pc, #16]	; (8000954 <HAL_NVIC_ClearPendingIRQ+0x28>)
 8000942:	f842 4023 	str.w	r4, [r2, r3, lsl #2]
 8000946:	bd10      	pop	{r4, pc}
 8000948:	f240 1191 	movw	r1, #401	; 0x191
 800094c:	4802      	ldr	r0, [pc, #8]	; (8000958 <HAL_NVIC_ClearPendingIRQ+0x2c>)
 800094e:	f001 f84b 	bl	80019e8 <assert_failed>
 8000952:	e7ee      	b.n	8000932 <HAL_NVIC_ClearPendingIRQ+0x6>
 8000954:	e000e100 	.word	0xe000e100
 8000958:	08002c88 	.word	0x08002c88

0800095c <HAL_NVIC_GetActive>:
 800095c:	b510      	push	{r4, lr}
 800095e:	1e04      	subs	r4, r0, #0
 8000960:	db0a      	blt.n	8000978 <HAL_NVIC_GetActive+0x1c>
 8000962:	0963      	lsrs	r3, r4, #5
 8000964:	3380      	adds	r3, #128	; 0x80
 8000966:	4a07      	ldr	r2, [pc, #28]	; (8000984 <HAL_NVIC_GetActive+0x28>)
 8000968:	f852 0023 	ldr.w	r0, [r2, r3, lsl #2]
 800096c:	f004 041f 	and.w	r4, r4, #31
 8000970:	40e0      	lsrs	r0, r4
 8000972:	f000 0001 	and.w	r0, r0, #1
 8000976:	bd10      	pop	{r4, pc}
 8000978:	f44f 71d1 	mov.w	r1, #418	; 0x1a2
 800097c:	4802      	ldr	r0, [pc, #8]	; (8000988 <HAL_NVIC_GetActive+0x2c>)
 800097e:	f001 f833 	bl	80019e8 <assert_failed>
 8000982:	e7ee      	b.n	8000962 <HAL_NVIC_GetActive+0x6>
 8000984:	e000e100 	.word	0xe000e100
 8000988:	08002c88 	.word	0x08002c88

0800098c <HAL_SYSTICK_CLKSourceConfig>:
 800098c:	b510      	push	{r4, lr}
 800098e:	4604      	mov	r4, r0
 8000990:	2804      	cmp	r0, #4
 8000992:	d000      	beq.n	8000996 <HAL_SYSTICK_CLKSourceConfig+0xa>
 8000994:	b938      	cbnz	r0, 80009a6 <HAL_SYSTICK_CLKSourceConfig+0x1a>
 8000996:	2c04      	cmp	r4, #4
 8000998:	d00b      	beq.n	80009b2 <HAL_SYSTICK_CLKSourceConfig+0x26>
 800099a:	4a09      	ldr	r2, [pc, #36]	; (80009c0 <HAL_SYSTICK_CLKSourceConfig+0x34>)
 800099c:	6813      	ldr	r3, [r2, #0]
 800099e:	f023 0304 	bic.w	r3, r3, #4
 80009a2:	6013      	str	r3, [r2, #0]
 80009a4:	bd10      	pop	{r4, pc}
 80009a6:	f240 11b3 	movw	r1, #435	; 0x1b3
 80009aa:	4806      	ldr	r0, [pc, #24]	; (80009c4 <HAL_SYSTICK_CLKSourceConfig+0x38>)
 80009ac:	f001 f81c 	bl	80019e8 <assert_failed>
 80009b0:	e7f1      	b.n	8000996 <HAL_SYSTICK_CLKSourceConfig+0xa>
 80009b2:	4a03      	ldr	r2, [pc, #12]	; (80009c0 <HAL_SYSTICK_CLKSourceConfig+0x34>)
 80009b4:	6813      	ldr	r3, [r2, #0]
 80009b6:	f043 0304 	orr.w	r3, r3, #4
 80009ba:	6013      	str	r3, [r2, #0]
 80009bc:	bd10      	pop	{r4, pc}
 80009be:	bf00      	nop
 80009c0:	e000e010 	.word	0xe000e010
 80009c4:	08002c88 	.word	0x08002c88

080009c8 <HAL_SYSTICK_Callback>:
 80009c8:	4770      	bx	lr

080009ca <HAL_SYSTICK_IRQHandler>:
 80009ca:	b508      	push	{r3, lr}
 80009cc:	f7ff fffc 	bl	80009c8 <HAL_SYSTICK_Callback>
 80009d0:	bd08      	pop	{r3, pc}
 80009d2:	bf00      	nop

080009d4 <HAL_GPIO_Init>:
 80009d4:	e92d 47f0 	stmdb	sp!, {r4, r5, r6, r7, r8, r9, sl, lr}
 80009d8:	b082      	sub	sp, #8
 80009da:	4680      	mov	r8, r0
 80009dc:	460f      	mov	r7, r1
 80009de:	4bb5      	ldr	r3, [pc, #724]	; (8000cb4 <HAL_GPIO_Init+0x2e0>)
 80009e0:	4298      	cmp	r0, r3
 80009e2:	d023      	beq.n	8000a2c <HAL_GPIO_Init+0x58>
 80009e4:	f503 6380 	add.w	r3, r3, #1024	; 0x400
 80009e8:	4298      	cmp	r0, r3
 80009ea:	d01f      	beq.n	8000a2c <HAL_GPIO_Init+0x58>
 80009ec:	f503 6380 	add.w	r3, r3, #1024	; 0x400
 80009f0:	4298      	cmp	r0, r3
 80009f2:	d01b      	beq.n	8000a2c <HAL_GPIO_Init+0x58>
 80009f4:	f503 6380 	add.w	r3, r3, #1024	; 0x400
 80009f8:	4298      	cmp	r0, r3
 80009fa:	d017      	beq.n	8000a2c <HAL_GPIO_Init+0x58>
 80009fc:	f503 6380 	add.w	r3, r3, #1024	; 0x400
 8000a00:	4298      	cmp	r0, r3
 8000a02:	d013      	beq.n	8000a2c <HAL_GPIO_Init+0x58>
 8000a04:	f503 6380 	add.w	r3, r3, #1024	; 0x400
 8000a08:	4298      	cmp	r0, r3
 8000a0a:	d00f      	beq.n	8000a2c <HAL_GPIO_Init+0x58>
 8000a0c:	f503 6380 	add.w	r3, r3, #1024	; 0x400
 8000a10:	4298      	cmp	r0, r3
 8000a12:	d00b      	beq.n	8000a2c <HAL_GPIO_Init+0x58>
 8000a14:	f503 6380 	add.w	r3, r3, #1024	; 0x400
 8000a18:	4298      	cmp	r0, r3
 8000a1a:	d007      	beq.n	8000a2c <HAL_GPIO_Init+0x58>
 8000a1c:	f503 6380 	add.w	r3, r3, #1024	; 0x400
 8000a20:	4298      	cmp	r0, r3
 8000a22:	d003      	beq.n	8000a2c <HAL_GPIO_Init+0x58>
 8000a24:	21c5      	movs	r1, #197	; 0xc5
 8000a26:	48a4      	ldr	r0, [pc, #656]	; (8000cb8 <HAL_GPIO_Init+0x2e4>)
 8000a28:	f000 ffde 	bl	80019e8 <assert_failed>
 8000a2c:	883b      	ldrh	r3, [r7, #0]
 8000a2e:	b353      	cbz	r3, 8000a86 <HAL_GPIO_Init+0xb2>
 8000a30:	687b      	ldr	r3, [r7, #4]
 8000a32:	2b01      	cmp	r3, #1
 8000a34:	d922      	bls.n	8000a7c <HAL_GPIO_Init+0xa8>
 8000a36:	2b11      	cmp	r3, #17
 8000a38:	d020      	beq.n	8000a7c <HAL_GPIO_Init+0xa8>
 8000a3a:	2b02      	cmp	r3, #2
 8000a3c:	d01e      	beq.n	8000a7c <HAL_GPIO_Init+0xa8>
 8000a3e:	2b12      	cmp	r3, #18
 8000a40:	d01c      	beq.n	8000a7c <HAL_GPIO_Init+0xa8>
 8000a42:	4a9e      	ldr	r2, [pc, #632]	; (8000cbc <HAL_GPIO_Init+0x2e8>)
 8000a44:	4293      	cmp	r3, r2
 8000a46:	d019      	beq.n	8000a7c <HAL_GPIO_Init+0xa8>
 8000a48:	f502 1280 	add.w	r2, r2, #1048576	; 0x100000
 8000a4c:	4293      	cmp	r3, r2
 8000a4e:	d015      	beq.n	8000a7c <HAL_GPIO_Init+0xa8>
 8000a50:	f502 1280 	add.w	r2, r2, #1048576	; 0x100000
 8000a54:	4293      	cmp	r3, r2
 8000a56:	d011      	beq.n	8000a7c <HAL_GPIO_Init+0xa8>
 8000a58:	f5a2 12f8 	sub.w	r2, r2, #2031616	; 0x1f0000
 8000a5c:	4293      	cmp	r3, r2
 8000a5e:	d00d      	beq.n	8000a7c <HAL_GPIO_Init+0xa8>
 8000a60:	f502 1280 	add.w	r2, r2, #1048576	; 0x100000
 8000a64:	4293      	cmp	r3, r2
 8000a66:	d009      	beq.n	8000a7c <HAL_GPIO_Init+0xa8>
 8000a68:	f502 1280 	add.w	r2, r2, #1048576	; 0x100000
 8000a6c:	4293      	cmp	r3, r2
 8000a6e:	d005      	beq.n	8000a7c <HAL_GPIO_Init+0xa8>
 8000a70:	2b03      	cmp	r3, #3
 8000a72:	d003      	beq.n	8000a7c <HAL_GPIO_Init+0xa8>
 8000a74:	21c7      	movs	r1, #199	; 0xc7
 8000a76:	4890      	ldr	r0, [pc, #576]	; (8000cb8 <HAL_GPIO_Init+0x2e4>)
 8000a78:	f000 ffb6 	bl	80019e8 <assert_failed>
 8000a7c:	68bb      	ldr	r3, [r7, #8]
 8000a7e:	2b02      	cmp	r3, #2
 8000a80:	d806      	bhi.n	8000a90 <HAL_GPIO_Init+0xbc>
 8000a82:	2500      	movs	r5, #0
 8000a84:	e07a      	b.n	8000b7c <HAL_GPIO_Init+0x1a8>
 8000a86:	21c6      	movs	r1, #198	; 0xc6
 8000a88:	488b      	ldr	r0, [pc, #556]	; (8000cb8 <HAL_GPIO_Init+0x2e4>)
 8000a8a:	f000 ffad 	bl	80019e8 <assert_failed>
 8000a8e:	e7cf      	b.n	8000a30 <HAL_GPIO_Init+0x5c>
 8000a90:	21c8      	movs	r1, #200	; 0xc8
 8000a92:	4889      	ldr	r0, [pc, #548]	; (8000cb8 <HAL_GPIO_Init+0x2e4>)
 8000a94:	f000 ffa8 	bl	80019e8 <assert_failed>
 8000a98:	e7f3      	b.n	8000a82 <HAL_GPIO_Init+0xae>
 8000a9a:	693b      	ldr	r3, [r7, #16]
 8000a9c:	b1fb      	cbz	r3, 8000ade <HAL_GPIO_Init+0x10a>
 8000a9e:	2b09      	cmp	r3, #9
 8000aa0:	d01d      	beq.n	8000ade <HAL_GPIO_Init+0x10a>
 8000aa2:	2b01      	cmp	r3, #1
 8000aa4:	d01b      	beq.n	8000ade <HAL_GPIO_Init+0x10a>
 8000aa6:	2b02      	cmp	r3, #2
 8000aa8:	d019      	beq.n	8000ade <HAL_GPIO_Init+0x10a>
 8000aaa:	2b03      	cmp	r3, #3
 8000aac:	d017      	beq.n	8000ade <HAL_GPIO_Init+0x10a>
 8000aae:	2b04      	cmp	r3, #4
 8000ab0:	d015      	beq.n	8000ade <HAL_GPIO_Init+0x10a>
 8000ab2:	2b05      	cmp	r3, #5
 8000ab4:	d013      	beq.n	8000ade <HAL_GPIO_Init+0x10a>
 8000ab6:	2b06      	cmp	r3, #6
 8000ab8:	d011      	beq.n	8000ade <HAL_GPIO_Init+0x10a>
 8000aba:	2b07      	cmp	r3, #7
 8000abc:	d00f      	beq.n	8000ade <HAL_GPIO_Init+0x10a>
 8000abe:	2b08      	cmp	r3, #8
 8000ac0:	d00d      	beq.n	8000ade <HAL_GPIO_Init+0x10a>
 8000ac2:	2b0a      	cmp	r3, #10
 8000ac4:	d00b      	beq.n	8000ade <HAL_GPIO_Init+0x10a>
 8000ac6:	2b0b      	cmp	r3, #11
 8000ac8:	d009      	beq.n	8000ade <HAL_GPIO_Init+0x10a>
 8000aca:	2b0c      	cmp	r3, #12
 8000acc:	d007      	beq.n	8000ade <HAL_GPIO_Init+0x10a>
 8000ace:	2b0d      	cmp	r3, #13
 8000ad0:	d005      	beq.n	8000ade <HAL_GPIO_Init+0x10a>
 8000ad2:	2b0f      	cmp	r3, #15
 8000ad4:	d003      	beq.n	8000ade <HAL_GPIO_Init+0x10a>
 8000ad6:	21d9      	movs	r1, #217	; 0xd9
 8000ad8:	4877      	ldr	r0, [pc, #476]	; (8000cb8 <HAL_GPIO_Init+0x2e4>)
 8000ada:	f000 ff85 	bl	80019e8 <assert_failed>
 8000ade:	08e9      	lsrs	r1, r5, #3
 8000ae0:	3108      	adds	r1, #8
 8000ae2:	f858 3021 	ldr.w	r3, [r8, r1, lsl #2]
 8000ae6:	f005 0207 	and.w	r2, r5, #7
 8000aea:	0092      	lsls	r2, r2, #2
 8000aec:	200f      	movs	r0, #15
 8000aee:	4090      	lsls	r0, r2
 8000af0:	ea23 0300 	bic.w	r3, r3, r0
 8000af4:	6938      	ldr	r0, [r7, #16]
 8000af6:	fa00 f202 	lsl.w	r2, r0, r2
 8000afa:	4313      	orrs	r3, r2
 8000afc:	f848 3021 	str.w	r3, [r8, r1, lsl #2]
 8000b00:	e04c      	b.n	8000b9c <HAL_GPIO_Init+0x1c8>
 8000b02:	21ec      	movs	r1, #236	; 0xec
 8000b04:	486c      	ldr	r0, [pc, #432]	; (8000cb8 <HAL_GPIO_Init+0x2e4>)
 8000b06:	f000 ff6f 	bl	80019e8 <assert_failed>
 8000b0a:	e063      	b.n	8000bd4 <HAL_GPIO_Init+0x200>
 8000b0c:	2108      	movs	r1, #8
 8000b0e:	e000      	b.n	8000b12 <HAL_GPIO_Init+0x13e>
 8000b10:	2100      	movs	r1, #0
 8000b12:	40a1      	lsls	r1, r4
 8000b14:	430a      	orrs	r2, r1
 8000b16:	3302      	adds	r3, #2
 8000b18:	4969      	ldr	r1, [pc, #420]	; (8000cc0 <HAL_GPIO_Init+0x2ec>)
 8000b1a:	f841 2023 	str.w	r2, [r1, r3, lsl #2]
 8000b1e:	4b69      	ldr	r3, [pc, #420]	; (8000cc4 <HAL_GPIO_Init+0x2f0>)
 8000b20:	681a      	ldr	r2, [r3, #0]
 8000b22:	ea6f 0309 	mvn.w	r3, r9
 8000b26:	ea02 0103 	and.w	r1, r2, r3
 8000b2a:	6878      	ldr	r0, [r7, #4]
 8000b2c:	f410 3f80 	tst.w	r0, #65536	; 0x10000
 8000b30:	d001      	beq.n	8000b36 <HAL_GPIO_Init+0x162>
 8000b32:	ea49 0102 	orr.w	r1, r9, r2
 8000b36:	4a63      	ldr	r2, [pc, #396]	; (8000cc4 <HAL_GPIO_Init+0x2f0>)
 8000b38:	6011      	str	r1, [r2, #0]
 8000b3a:	6852      	ldr	r2, [r2, #4]
 8000b3c:	ea03 0102 	and.w	r1, r3, r2
 8000b40:	6878      	ldr	r0, [r7, #4]
 8000b42:	f410 3f00 	tst.w	r0, #131072	; 0x20000
 8000b46:	d001      	beq.n	8000b4c <HAL_GPIO_Init+0x178>
 8000b48:	ea49 0102 	orr.w	r1, r9, r2
 8000b4c:	4a5d      	ldr	r2, [pc, #372]	; (8000cc4 <HAL_GPIO_Init+0x2f0>)
 8000b4e:	6051      	str	r1, [r2, #4]
 8000b50:	6892      	ldr	r2, [r2, #8]
 8000b52:	ea03 0102 	and.w	r1, r3, r2
 8000b56:	6878      	ldr	r0, [r7, #4]
 8000b58:	f410 1f80 	tst.w	r0, #1048576	; 0x100000
 8000b5c:	d001      	beq.n	8000b62 <HAL_GPIO_Init+0x18e>
 8000b5e:	ea49 0102 	orr.w	r1, r9, r2
 8000b62:	4a58      	ldr	r2, [pc, #352]	; (8000cc4 <HAL_GPIO_Init+0x2f0>)
 8000b64:	6091      	str	r1, [r2, #8]
 8000b66:	68d2      	ldr	r2, [r2, #12]
 8000b68:	4013      	ands	r3, r2
 8000b6a:	6879      	ldr	r1, [r7, #4]
 8000b6c:	f411 1f00 	tst.w	r1, #2097152	; 0x200000
 8000b70:	d001      	beq.n	8000b76 <HAL_GPIO_Init+0x1a2>
 8000b72:	ea49 0302 	orr.w	r3, r9, r2
 8000b76:	4a53      	ldr	r2, [pc, #332]	; (8000cc4 <HAL_GPIO_Init+0x2f0>)
 8000b78:	60d3      	str	r3, [r2, #12]
 8000b7a:	3501      	adds	r5, #1
 8000b7c:	2d0f      	cmp	r5, #15
 8000b7e:	f200 8096 	bhi.w	8000cae <HAL_GPIO_Init+0x2da>
 8000b82:	2401      	movs	r4, #1
 8000b84:	40ac      	lsls	r4, r5
 8000b86:	683b      	ldr	r3, [r7, #0]
 8000b88:	ea04 0903 	and.w	r9, r4, r3
 8000b8c:	454c      	cmp	r4, r9
 8000b8e:	d1f4      	bne.n	8000b7a <HAL_GPIO_Init+0x1a6>
 8000b90:	687b      	ldr	r3, [r7, #4]
 8000b92:	2b02      	cmp	r3, #2
 8000b94:	d081      	beq.n	8000a9a <HAL_GPIO_Init+0xc6>
 8000b96:	2b12      	cmp	r3, #18
 8000b98:	f43f af7f 	beq.w	8000a9a <HAL_GPIO_Init+0xc6>
 8000b9c:	f8d8 3000 	ldr.w	r3, [r8]
 8000ba0:	ea4f 0a45 	mov.w	sl, r5, lsl #1
 8000ba4:	2603      	movs	r6, #3
 8000ba6:	fa06 f60a 	lsl.w	r6, r6, sl
 8000baa:	43f6      	mvns	r6, r6
 8000bac:	4033      	ands	r3, r6
 8000bae:	687a      	ldr	r2, [r7, #4]
 8000bb0:	f002 0203 	and.w	r2, r2, #3
 8000bb4:	fa02 f20a 	lsl.w	r2, r2, sl
 8000bb8:	4313      	orrs	r3, r2
 8000bba:	f8c8 3000 	str.w	r3, [r8]
 8000bbe:	687b      	ldr	r3, [r7, #4]
 8000bc0:	1e5a      	subs	r2, r3, #1
 8000bc2:	2a01      	cmp	r2, #1
 8000bc4:	d903      	bls.n	8000bce <HAL_GPIO_Init+0x1fa>
 8000bc6:	2b11      	cmp	r3, #17
 8000bc8:	d001      	beq.n	8000bce <HAL_GPIO_Init+0x1fa>
 8000bca:	2b12      	cmp	r3, #18
 8000bcc:	d116      	bne.n	8000bfc <HAL_GPIO_Init+0x228>
 8000bce:	68fb      	ldr	r3, [r7, #12]
 8000bd0:	2b03      	cmp	r3, #3
 8000bd2:	d896      	bhi.n	8000b02 <HAL_GPIO_Init+0x12e>
 8000bd4:	f8d8 3008 	ldr.w	r3, [r8, #8]
 8000bd8:	4033      	ands	r3, r6
 8000bda:	68fa      	ldr	r2, [r7, #12]
 8000bdc:	fa02 f20a 	lsl.w	r2, r2, sl
 8000be0:	4313      	orrs	r3, r2
 8000be2:	f8c8 3008 	str.w	r3, [r8, #8]
 8000be6:	f8d8 3004 	ldr.w	r3, [r8, #4]
 8000bea:	ea23 0404 	bic.w	r4, r3, r4
 8000bee:	687b      	ldr	r3, [r7, #4]
 8000bf0:	f3c3 1300 	ubfx	r3, r3, #4, #1
 8000bf4:	40ab      	lsls	r3, r5
 8000bf6:	431c      	orrs	r4, r3
 8000bf8:	f8c8 4004 	str.w	r4, [r8, #4]
 8000bfc:	f8d8 300c 	ldr.w	r3, [r8, #12]
 8000c00:	401e      	ands	r6, r3
 8000c02:	68bb      	ldr	r3, [r7, #8]
 8000c04:	fa03 f30a 	lsl.w	r3, r3, sl
 8000c08:	431e      	orrs	r6, r3
 8000c0a:	f8c8 600c 	str.w	r6, [r8, #12]
 8000c0e:	687b      	ldr	r3, [r7, #4]
 8000c10:	f013 5f80 	tst.w	r3, #268435456	; 0x10000000
 8000c14:	d0b1      	beq.n	8000b7a <HAL_GPIO_Init+0x1a6>
 8000c16:	2300      	movs	r3, #0
 8000c18:	9301      	str	r3, [sp, #4]
 8000c1a:	4b2b      	ldr	r3, [pc, #172]	; (8000cc8 <HAL_GPIO_Init+0x2f4>)
 8000c1c:	6c5a      	ldr	r2, [r3, #68]	; 0x44
 8000c1e:	f442 4280 	orr.w	r2, r2, #16384	; 0x4000
 8000c22:	645a      	str	r2, [r3, #68]	; 0x44
 8000c24:	6c5b      	ldr	r3, [r3, #68]	; 0x44
 8000c26:	f403 4380 	and.w	r3, r3, #16384	; 0x4000
 8000c2a:	9301      	str	r3, [sp, #4]
 8000c2c:	9b01      	ldr	r3, [sp, #4]
 8000c2e:	08ab      	lsrs	r3, r5, #2
 8000c30:	1c99      	adds	r1, r3, #2
 8000c32:	4a23      	ldr	r2, [pc, #140]	; (8000cc0 <HAL_GPIO_Init+0x2ec>)
 8000c34:	f852 2021 	ldr.w	r2, [r2, r1, lsl #2]
 8000c38:	f005 0103 	and.w	r1, r5, #3
 8000c3c:	008c      	lsls	r4, r1, #2
 8000c3e:	210f      	movs	r1, #15
 8000c40:	40a1      	lsls	r1, r4
 8000c42:	ea22 0201 	bic.w	r2, r2, r1
 8000c46:	481b      	ldr	r0, [pc, #108]	; (8000cb4 <HAL_GPIO_Init+0x2e0>)
 8000c48:	4580      	cmp	r8, r0
 8000c4a:	f43f af61 	beq.w	8000b10 <HAL_GPIO_Init+0x13c>
 8000c4e:	491f      	ldr	r1, [pc, #124]	; (8000ccc <HAL_GPIO_Init+0x2f8>)
 8000c50:	4588      	cmp	r8, r1
 8000c52:	d01e      	beq.n	8000c92 <HAL_GPIO_Init+0x2be>
 8000c54:	f501 6180 	add.w	r1, r1, #1024	; 0x400
 8000c58:	4588      	cmp	r8, r1
 8000c5a:	d01c      	beq.n	8000c96 <HAL_GPIO_Init+0x2c2>
 8000c5c:	f501 6180 	add.w	r1, r1, #1024	; 0x400
 8000c60:	4588      	cmp	r8, r1
 8000c62:	d01a      	beq.n	8000c9a <HAL_GPIO_Init+0x2c6>
 8000c64:	f501 6180 	add.w	r1, r1, #1024	; 0x400
 8000c68:	4588      	cmp	r8, r1
 8000c6a:	d018      	beq.n	8000c9e <HAL_GPIO_Init+0x2ca>
 8000c6c:	f501 6180 	add.w	r1, r1, #1024	; 0x400
 8000c70:	4588      	cmp	r8, r1
 8000c72:	d016      	beq.n	8000ca2 <HAL_GPIO_Init+0x2ce>
 8000c74:	f501 6180 	add.w	r1, r1, #1024	; 0x400
 8000c78:	4588      	cmp	r8, r1
 8000c7a:	d014      	beq.n	8000ca6 <HAL_GPIO_Init+0x2d2>
 8000c7c:	f501 6180 	add.w	r1, r1, #1024	; 0x400
 8000c80:	4588      	cmp	r8, r1
 8000c82:	d012      	beq.n	8000caa <HAL_GPIO_Init+0x2d6>
 8000c84:	f501 6180 	add.w	r1, r1, #1024	; 0x400
 8000c88:	4588      	cmp	r8, r1
 8000c8a:	f43f af3f 	beq.w	8000b0c <HAL_GPIO_Init+0x138>
 8000c8e:	2109      	movs	r1, #9
 8000c90:	e73f      	b.n	8000b12 <HAL_GPIO_Init+0x13e>
 8000c92:	2101      	movs	r1, #1
 8000c94:	e73d      	b.n	8000b12 <HAL_GPIO_Init+0x13e>
 8000c96:	2102      	movs	r1, #2
 8000c98:	e73b      	b.n	8000b12 <HAL_GPIO_Init+0x13e>
 8000c9a:	2103      	movs	r1, #3
 8000c9c:	e739      	b.n	8000b12 <HAL_GPIO_Init+0x13e>
 8000c9e:	2104      	movs	r1, #4
 8000ca0:	e737      	b.n	8000b12 <HAL_GPIO_Init+0x13e>
 8000ca2:	2105      	movs	r1, #5
 8000ca4:	e735      	b.n	8000b12 <HAL_GPIO_Init+0x13e>
 8000ca6:	2106      	movs	r1, #6
 8000ca8:	e733      	b.n	8000b12 <HAL_GPIO_Init+0x13e>
 8000caa:	2107      	movs	r1, #7
 8000cac:	e731      	b.n	8000b12 <HAL_GPIO_Init+0x13e>
 8000cae:	b002      	add	sp, #8
 8000cb0:	e8bd 87f0 	ldmia.w	sp!, {r4, r5, r6, r7, r8, r9, sl, pc}
 8000cb4:	40020000 	.word	0x40020000
 8000cb8:	08002cbc 	.word	0x08002cbc
 8000cbc:	10110000 	.word	0x10110000
 8000cc0:	40013800 	.word	0x40013800
 8000cc4:	40013c00 	.word	0x40013c00
 8000cc8:	40023800 	.word	0x40023800
 8000ccc:	40020400 	.word	0x40020400

08000cd0 <HAL_GPIO_DeInit>:
 8000cd0:	b5f8      	push	{r3, r4, r5, r6, r7, lr}
 8000cd2:	4604      	mov	r4, r0
 8000cd4:	460d      	mov	r5, r1
 8000cd6:	4b59      	ldr	r3, [pc, #356]	; (8000e3c <HAL_GPIO_DeInit+0x16c>)
 8000cd8:	4298      	cmp	r0, r3
 8000cda:	d024      	beq.n	8000d26 <HAL_GPIO_DeInit+0x56>
 8000cdc:	f503 6380 	add.w	r3, r3, #1024	; 0x400
 8000ce0:	4298      	cmp	r0, r3
 8000ce2:	d020      	beq.n	8000d26 <HAL_GPIO_DeInit+0x56>
 8000ce4:	f503 6380 	add.w	r3, r3, #1024	; 0x400
 8000ce8:	4298      	cmp	r0, r3
 8000cea:	d01c      	beq.n	8000d26 <HAL_GPIO_DeInit+0x56>
 8000cec:	f503 6380 	add.w	r3, r3, #1024	; 0x400
 8000cf0:	4298      	cmp	r0, r3
 8000cf2:	d018      	beq.n	8000d26 <HAL_GPIO_DeInit+0x56>
 8000cf4:	f503 6380 	add.w	r3, r3, #1024	; 0x400
 8000cf8:	4298      	cmp	r0, r3
 8000cfa:	d014      	beq.n	8000d26 <HAL_GPIO_DeInit+0x56>
 8000cfc:	f503 6380 	add.w	r3, r3, #1024	; 0x400
 8000d00:	4298      	cmp	r0, r3
 8000d02:	d010      	beq.n	8000d26 <HAL_GPIO_DeInit+0x56>
 8000d04:	f503 6380 	add.w	r3, r3, #1024	; 0x400
 8000d08:	4298      	cmp	r0, r3
 8000d0a:	d00c      	beq.n	8000d26 <HAL_GPIO_DeInit+0x56>
 8000d0c:	f503 6380 	add.w	r3, r3, #1024	; 0x400
 8000d10:	4298      	cmp	r0, r3
 8000d12:	d008      	beq.n	8000d26 <HAL_GPIO_DeInit+0x56>
 8000d14:	f503 6380 	add.w	r3, r3, #1024	; 0x400
 8000d18:	4298      	cmp	r0, r3
 8000d1a:	d004      	beq.n	8000d26 <HAL_GPIO_DeInit+0x56>
 8000d1c:	f44f 71a1 	mov.w	r1, #322	; 0x142
 8000d20:	4847      	ldr	r0, [pc, #284]	; (8000e40 <HAL_GPIO_DeInit+0x170>)
 8000d22:	f000 fe61 	bl	80019e8 <assert_failed>
 8000d26:	2300      	movs	r3, #0
 8000d28:	e007      	b.n	8000d3a <HAL_GPIO_DeInit+0x6a>
 8000d2a:	2608      	movs	r6, #8
 8000d2c:	e000      	b.n	8000d30 <HAL_GPIO_DeInit+0x60>
 8000d2e:	2600      	movs	r6, #0
 8000d30:	fa06 f202 	lsl.w	r2, r6, r2
 8000d34:	4291      	cmp	r1, r2
 8000d36:	d068      	beq.n	8000e0a <HAL_GPIO_DeInit+0x13a>
 8000d38:	3301      	adds	r3, #1
 8000d3a:	2b0f      	cmp	r3, #15
 8000d3c:	d87d      	bhi.n	8000e3a <HAL_GPIO_DeInit+0x16a>
 8000d3e:	2201      	movs	r2, #1
 8000d40:	409a      	lsls	r2, r3
 8000d42:	ea02 0005 	and.w	r0, r2, r5
 8000d46:	4282      	cmp	r2, r0
 8000d48:	d1f6      	bne.n	8000d38 <HAL_GPIO_DeInit+0x68>
 8000d4a:	6826      	ldr	r6, [r4, #0]
 8000d4c:	005f      	lsls	r7, r3, #1
 8000d4e:	2103      	movs	r1, #3
 8000d50:	40b9      	lsls	r1, r7
 8000d52:	43c9      	mvns	r1, r1
 8000d54:	400e      	ands	r6, r1
 8000d56:	6026      	str	r6, [r4, #0]
 8000d58:	ea4f 0ed3 	mov.w	lr, r3, lsr #3
 8000d5c:	f10e 0e08 	add.w	lr, lr, #8
 8000d60:	f854 c02e 	ldr.w	ip, [r4, lr, lsl #2]
 8000d64:	f003 0607 	and.w	r6, r3, #7
 8000d68:	00b6      	lsls	r6, r6, #2
 8000d6a:	270f      	movs	r7, #15
 8000d6c:	fa07 f606 	lsl.w	r6, r7, r6
 8000d70:	ea2c 0606 	bic.w	r6, ip, r6
 8000d74:	f844 602e 	str.w	r6, [r4, lr, lsl #2]
 8000d78:	68a6      	ldr	r6, [r4, #8]
 8000d7a:	400e      	ands	r6, r1
 8000d7c:	60a6      	str	r6, [r4, #8]
 8000d7e:	6866      	ldr	r6, [r4, #4]
 8000d80:	ea26 0202 	bic.w	r2, r6, r2
 8000d84:	6062      	str	r2, [r4, #4]
 8000d86:	68e2      	ldr	r2, [r4, #12]
 8000d88:	4011      	ands	r1, r2
 8000d8a:	60e1      	str	r1, [r4, #12]
 8000d8c:	ea4f 0e93 	mov.w	lr, r3, lsr #2
 8000d90:	f10e 0102 	add.w	r1, lr, #2
 8000d94:	4a2b      	ldr	r2, [pc, #172]	; (8000e44 <HAL_GPIO_DeInit+0x174>)
 8000d96:	f852 1021 	ldr.w	r1, [r2, r1, lsl #2]
 8000d9a:	f003 0203 	and.w	r2, r3, #3
 8000d9e:	0092      	lsls	r2, r2, #2
 8000da0:	4097      	lsls	r7, r2
 8000da2:	4039      	ands	r1, r7
 8000da4:	4e25      	ldr	r6, [pc, #148]	; (8000e3c <HAL_GPIO_DeInit+0x16c>)
 8000da6:	42b4      	cmp	r4, r6
 8000da8:	d0c1      	beq.n	8000d2e <HAL_GPIO_DeInit+0x5e>
 8000daa:	f506 6680 	add.w	r6, r6, #1024	; 0x400
 8000dae:	42b4      	cmp	r4, r6
 8000db0:	d01d      	beq.n	8000dee <HAL_GPIO_DeInit+0x11e>
 8000db2:	f506 6680 	add.w	r6, r6, #1024	; 0x400
 8000db6:	42b4      	cmp	r4, r6
 8000db8:	d01b      	beq.n	8000df2 <HAL_GPIO_DeInit+0x122>
 8000dba:	f506 6680 	add.w	r6, r6, #1024	; 0x400
 8000dbe:	42b4      	cmp	r4, r6
 8000dc0:	d019      	beq.n	8000df6 <HAL_GPIO_DeInit+0x126>
 8000dc2:	f506 6680 	add.w	r6, r6, #1024	; 0x400
 8000dc6:	42b4      	cmp	r4, r6
 8000dc8:	d017      	beq.n	8000dfa <HAL_GPIO_DeInit+0x12a>
 8000dca:	f506 6680 	add.w	r6, r6, #1024	; 0x400
 8000dce:	42b4      	cmp	r4, r6
 8000dd0:	d015      	beq.n	8000dfe <HAL_GPIO_DeInit+0x12e>
 8000dd2:	f506 6680 	add.w	r6, r6, #1024	; 0x400
 8000dd6:	42b4      	cmp	r4, r6
 8000dd8:	d013      	beq.n	8000e02 <HAL_GPIO_DeInit+0x132>
 8000dda:	f506 6680 	add.w	r6, r6, #1024	; 0x400
 8000dde:	42b4      	cmp	r4, r6
 8000de0:	d011      	beq.n	8000e06 <HAL_GPIO_DeInit+0x136>
 8000de2:	f506 6680 	add.w	r6, r6, #1024	; 0x400
 8000de6:	42b4      	cmp	r4, r6
 8000de8:	d09f      	beq.n	8000d2a <HAL_GPIO_DeInit+0x5a>
 8000dea:	2609      	movs	r6, #9
 8000dec:	e7a0      	b.n	8000d30 <HAL_GPIO_DeInit+0x60>
 8000dee:	2601      	movs	r6, #1
 8000df0:	e79e      	b.n	8000d30 <HAL_GPIO_DeInit+0x60>
 8000df2:	2602      	movs	r6, #2
 8000df4:	e79c      	b.n	8000d30 <HAL_GPIO_DeInit+0x60>
 8000df6:	2603      	movs	r6, #3
 8000df8:	e79a      	b.n	8000d30 <HAL_GPIO_DeInit+0x60>
 8000dfa:	2604      	movs	r6, #4
 8000dfc:	e798      	b.n	8000d30 <HAL_GPIO_DeInit+0x60>
 8000dfe:	2605      	movs	r6, #5
 8000e00:	e796      	b.n	8000d30 <HAL_GPIO_DeInit+0x60>
 8000e02:	2606      	movs	r6, #6
 8000e04:	e794      	b.n	8000d30 <HAL_GPIO_DeInit+0x60>
 8000e06:	2607      	movs	r6, #7
 8000e08:	e792      	b.n	8000d30 <HAL_GPIO_DeInit+0x60>
 8000e0a:	4e0e      	ldr	r6, [pc, #56]	; (8000e44 <HAL_GPIO_DeInit+0x174>)
 8000e0c:	f10e 0202 	add.w	r2, lr, #2
 8000e10:	f856 1022 	ldr.w	r1, [r6, r2, lsl #2]
 8000e14:	ea21 0707 	bic.w	r7, r1, r7
 8000e18:	f846 7022 	str.w	r7, [r6, r2, lsl #2]
 8000e1c:	490a      	ldr	r1, [pc, #40]	; (8000e48 <HAL_GPIO_DeInit+0x178>)
 8000e1e:	680e      	ldr	r6, [r1, #0]
 8000e20:	43c2      	mvns	r2, r0
 8000e22:	4016      	ands	r6, r2
 8000e24:	600e      	str	r6, [r1, #0]
 8000e26:	6848      	ldr	r0, [r1, #4]
 8000e28:	4010      	ands	r0, r2
 8000e2a:	6048      	str	r0, [r1, #4]
 8000e2c:	6888      	ldr	r0, [r1, #8]
 8000e2e:	4010      	ands	r0, r2
 8000e30:	6088      	str	r0, [r1, #8]
 8000e32:	68c8      	ldr	r0, [r1, #12]
 8000e34:	4002      	ands	r2, r0
 8000e36:	60ca      	str	r2, [r1, #12]
 8000e38:	e77e      	b.n	8000d38 <HAL_GPIO_DeInit+0x68>
 8000e3a:	bdf8      	pop	{r3, r4, r5, r6, r7, pc}
 8000e3c:	40020000 	.word	0x40020000
 8000e40:	08002cbc 	.word	0x08002cbc
 8000e44:	40013800 	.word	0x40013800
 8000e48:	40013c00 	.word	0x40013c00

08000e4c <HAL_GPIO_ReadPin>:
 8000e4c:	b538      	push	{r3, r4, r5, lr}
 8000e4e:	4605      	mov	r5, r0
 8000e50:	460c      	mov	r4, r1
 8000e52:	b121      	cbz	r1, 8000e5e <HAL_GPIO_ReadPin+0x12>
 8000e54:	692b      	ldr	r3, [r5, #16]
 8000e56:	421c      	tst	r4, r3
 8000e58:	d107      	bne.n	8000e6a <HAL_GPIO_ReadPin+0x1e>
 8000e5a:	2000      	movs	r0, #0
 8000e5c:	bd38      	pop	{r3, r4, r5, pc}
 8000e5e:	f44f 71c8 	mov.w	r1, #400	; 0x190
 8000e62:	4803      	ldr	r0, [pc, #12]	; (8000e70 <HAL_GPIO_ReadPin+0x24>)
 8000e64:	f000 fdc0 	bl	80019e8 <assert_failed>
 8000e68:	e7f4      	b.n	8000e54 <HAL_GPIO_ReadPin+0x8>
 8000e6a:	2001      	movs	r0, #1
 8000e6c:	bd38      	pop	{r3, r4, r5, pc}
 8000e6e:	bf00      	nop
 8000e70:	08002cbc 	.word	0x08002cbc

08000e74 <HAL_GPIO_WritePin>:
 8000e74:	b570      	push	{r4, r5, r6, lr}
 8000e76:	4606      	mov	r6, r0
 8000e78:	4615      	mov	r5, r2
 8000e7a:	460c      	mov	r4, r1
 8000e7c:	b151      	cbz	r1, 8000e94 <HAL_GPIO_WritePin+0x20>
 8000e7e:	2d01      	cmp	r5, #1
 8000e80:	d904      	bls.n	8000e8c <HAL_GPIO_WritePin+0x18>
 8000e82:	f44f 71d9 	mov.w	r1, #434	; 0x1b2
 8000e86:	4807      	ldr	r0, [pc, #28]	; (8000ea4 <HAL_GPIO_WritePin+0x30>)
 8000e88:	f000 fdae 	bl	80019e8 <assert_failed>
 8000e8c:	b945      	cbnz	r5, 8000ea0 <HAL_GPIO_WritePin+0x2c>
 8000e8e:	0424      	lsls	r4, r4, #16
 8000e90:	61b4      	str	r4, [r6, #24]
 8000e92:	bd70      	pop	{r4, r5, r6, pc}
 8000e94:	f240 11b1 	movw	r1, #433	; 0x1b1
 8000e98:	4802      	ldr	r0, [pc, #8]	; (8000ea4 <HAL_GPIO_WritePin+0x30>)
 8000e9a:	f000 fda5 	bl	80019e8 <assert_failed>
 8000e9e:	e7ee      	b.n	8000e7e <HAL_GPIO_WritePin+0xa>
 8000ea0:	61b4      	str	r4, [r6, #24]
 8000ea2:	bd70      	pop	{r4, r5, r6, pc}
 8000ea4:	08002cbc 	.word	0x08002cbc

08000ea8 <HAL_GPIO_TogglePin>:
 8000ea8:	b538      	push	{r3, r4, r5, lr}
 8000eaa:	4605      	mov	r5, r0
 8000eac:	460c      	mov	r4, r1
 8000eae:	b119      	cbz	r1, 8000eb8 <HAL_GPIO_TogglePin+0x10>
 8000eb0:	696b      	ldr	r3, [r5, #20]
 8000eb2:	405c      	eors	r4, r3
 8000eb4:	616c      	str	r4, [r5, #20]
 8000eb6:	bd38      	pop	{r3, r4, r5, pc}
 8000eb8:	f44f 71e4 	mov.w	r1, #456	; 0x1c8
 8000ebc:	4801      	ldr	r0, [pc, #4]	; (8000ec4 <HAL_GPIO_TogglePin+0x1c>)
 8000ebe:	f000 fd93 	bl	80019e8 <assert_failed>
 8000ec2:	e7f5      	b.n	8000eb0 <HAL_GPIO_TogglePin+0x8>
 8000ec4:	08002cbc 	.word	0x08002cbc

08000ec8 <HAL_GPIO_LockPin>:
 8000ec8:	b530      	push	{r4, r5, lr}
 8000eca:	b083      	sub	sp, #12
 8000ecc:	4604      	mov	r4, r0
 8000ece:	f44f 3380 	mov.w	r3, #65536	; 0x10000
 8000ed2:	9301      	str	r3, [sp, #4]
 8000ed4:	460d      	mov	r5, r1
 8000ed6:	b181      	cbz	r1, 8000efa <HAL_GPIO_LockPin+0x32>
 8000ed8:	9b01      	ldr	r3, [sp, #4]
 8000eda:	432b      	orrs	r3, r5
 8000edc:	9301      	str	r3, [sp, #4]
 8000ede:	9b01      	ldr	r3, [sp, #4]
 8000ee0:	61e3      	str	r3, [r4, #28]
 8000ee2:	61e5      	str	r5, [r4, #28]
 8000ee4:	9b01      	ldr	r3, [sp, #4]
 8000ee6:	61e3      	str	r3, [r4, #28]
 8000ee8:	69e3      	ldr	r3, [r4, #28]
 8000eea:	9301      	str	r3, [sp, #4]
 8000eec:	69e3      	ldr	r3, [r4, #28]
 8000eee:	f413 3f80 	tst.w	r3, #65536	; 0x10000
 8000ef2:	d108      	bne.n	8000f06 <HAL_GPIO_LockPin+0x3e>
 8000ef4:	2001      	movs	r0, #1
 8000ef6:	b003      	add	sp, #12
 8000ef8:	bd30      	pop	{r4, r5, pc}
 8000efa:	f240 11dd 	movw	r1, #477	; 0x1dd
 8000efe:	4803      	ldr	r0, [pc, #12]	; (8000f0c <HAL_GPIO_LockPin+0x44>)
 8000f00:	f000 fd72 	bl	80019e8 <assert_failed>
 8000f04:	e7e8      	b.n	8000ed8 <HAL_GPIO_LockPin+0x10>
 8000f06:	2000      	movs	r0, #0
 8000f08:	e7f5      	b.n	8000ef6 <HAL_GPIO_LockPin+0x2e>
 8000f0a:	bf00      	nop
 8000f0c:	08002cbc 	.word	0x08002cbc

08000f10 <HAL_GPIO_EXTI_Callback>:
 8000f10:	4770      	bx	lr

08000f12 <HAL_GPIO_EXTI_IRQHandler>:
 8000f12:	b508      	push	{r3, lr}
 8000f14:	4b04      	ldr	r3, [pc, #16]	; (8000f28 <HAL_GPIO_EXTI_IRQHandler+0x16>)
 8000f16:	695b      	ldr	r3, [r3, #20]
 8000f18:	4203      	tst	r3, r0
 8000f1a:	d100      	bne.n	8000f1e <HAL_GPIO_EXTI_IRQHandler+0xc>
 8000f1c:	bd08      	pop	{r3, pc}
 8000f1e:	4b02      	ldr	r3, [pc, #8]	; (8000f28 <HAL_GPIO_EXTI_IRQHandler+0x16>)
 8000f20:	6158      	str	r0, [r3, #20]
 8000f22:	f7ff fff5 	bl	8000f10 <HAL_GPIO_EXTI_Callback>
 8000f26:	e7f9      	b.n	8000f1c <HAL_GPIO_EXTI_IRQHandler+0xa>
 8000f28:	40013c00 	.word	0x40013c00

08000f2c <HAL_RCC_DeInit>:
 8000f2c:	4770      	bx	lr

08000f2e <HAL_RCC_OscConfig>:
 8000f2e:	b530      	push	{r4, r5, lr}
 8000f30:	b083      	sub	sp, #12
 8000f32:	4604      	mov	r4, r0
 8000f34:	6803      	ldr	r3, [r0, #0]
 8000f36:	2b0f      	cmp	r3, #15
 8000f38:	d82d      	bhi.n	8000f96 <HAL_RCC_OscConfig+0x68>
 8000f3a:	6823      	ldr	r3, [r4, #0]
 8000f3c:	f013 0f01 	tst.w	r3, #1
 8000f40:	d03c      	beq.n	8000fbc <HAL_RCC_OscConfig+0x8e>
 8000f42:	6863      	ldr	r3, [r4, #4]
 8000f44:	2b01      	cmp	r3, #1
 8000f46:	d905      	bls.n	8000f54 <HAL_RCC_OscConfig+0x26>
 8000f48:	2b05      	cmp	r3, #5
 8000f4a:	d003      	beq.n	8000f54 <HAL_RCC_OscConfig+0x26>
 8000f4c:	21fa      	movs	r1, #250	; 0xfa
 8000f4e:	48a0      	ldr	r0, [pc, #640]	; (80011d0 <HAL_RCC_OscConfig+0x2a2>)
 8000f50:	f000 fd4a 	bl	80019e8 <assert_failed>
 8000f54:	4b9f      	ldr	r3, [pc, #636]	; (80011d4 <HAL_RCC_OscConfig+0x2a6>)
 8000f56:	689b      	ldr	r3, [r3, #8]
 8000f58:	f003 030c 	and.w	r3, r3, #12
 8000f5c:	2b04      	cmp	r3, #4
 8000f5e:	d024      	beq.n	8000faa <HAL_RCC_OscConfig+0x7c>
 8000f60:	4b9c      	ldr	r3, [pc, #624]	; (80011d4 <HAL_RCC_OscConfig+0x2a6>)
 8000f62:	689b      	ldr	r3, [r3, #8]
 8000f64:	f003 030c 	and.w	r3, r3, #12
 8000f68:	2b08      	cmp	r3, #8
 8000f6a:	d019      	beq.n	8000fa0 <HAL_RCC_OscConfig+0x72>
 8000f6c:	7922      	ldrb	r2, [r4, #4]
 8000f6e:	4b9a      	ldr	r3, [pc, #616]	; (80011d8 <HAL_RCC_OscConfig+0x2aa>)
 8000f70:	701a      	strb	r2, [r3, #0]
 8000f72:	6863      	ldr	r3, [r4, #4]
 8000f74:	2b00      	cmp	r3, #0
 8000f76:	d050      	beq.n	800101a <HAL_RCC_OscConfig+0xec>
 8000f78:	f7ff faa2 	bl	80004c0 <HAL_GetTick>
 8000f7c:	4605      	mov	r5, r0
 8000f7e:	4b95      	ldr	r3, [pc, #596]	; (80011d4 <HAL_RCC_OscConfig+0x2a6>)
 8000f80:	681b      	ldr	r3, [r3, #0]
 8000f82:	f413 3f00 	tst.w	r3, #131072	; 0x20000
 8000f86:	d119      	bne.n	8000fbc <HAL_RCC_OscConfig+0x8e>
 8000f88:	f7ff fa9a 	bl	80004c0 <HAL_GetTick>
 8000f8c:	1b40      	subs	r0, r0, r5
 8000f8e:	2864      	cmp	r0, #100	; 0x64
 8000f90:	d9f5      	bls.n	8000f7e <HAL_RCC_OscConfig+0x50>
 8000f92:	2003      	movs	r0, #3
 8000f94:	e1d8      	b.n	8001348 <HAL_RCC_OscConfig+0x41a>
 8000f96:	21f5      	movs	r1, #245	; 0xf5
 8000f98:	488d      	ldr	r0, [pc, #564]	; (80011d0 <HAL_RCC_OscConfig+0x2a2>)
 8000f9a:	f000 fd25 	bl	80019e8 <assert_failed>
 8000f9e:	e7cc      	b.n	8000f3a <HAL_RCC_OscConfig+0xc>
 8000fa0:	4b8c      	ldr	r3, [pc, #560]	; (80011d4 <HAL_RCC_OscConfig+0x2a6>)
 8000fa2:	685b      	ldr	r3, [r3, #4]
 8000fa4:	f413 0f80 	tst.w	r3, #4194304	; 0x400000
 8000fa8:	d0e0      	beq.n	8000f6c <HAL_RCC_OscConfig+0x3e>
 8000faa:	4b8a      	ldr	r3, [pc, #552]	; (80011d4 <HAL_RCC_OscConfig+0x2a6>)
 8000fac:	681b      	ldr	r3, [r3, #0]
 8000fae:	f413 3f00 	tst.w	r3, #131072	; 0x20000
 8000fb2:	d003      	beq.n	8000fbc <HAL_RCC_OscConfig+0x8e>
 8000fb4:	6863      	ldr	r3, [r4, #4]
 8000fb6:	2b00      	cmp	r3, #0
 8000fb8:	f000 81c3 	beq.w	8001342 <HAL_RCC_OscConfig+0x414>
 8000fbc:	6823      	ldr	r3, [r4, #0]
 8000fbe:	f013 0f02 	tst.w	r3, #2
 8000fc2:	d05c      	beq.n	800107e <HAL_RCC_OscConfig+0x150>
 8000fc4:	68e3      	ldr	r3, [r4, #12]
 8000fc6:	2b01      	cmp	r3, #1
 8000fc8:	d904      	bls.n	8000fd4 <HAL_RCC_OscConfig+0xa6>
 8000fca:	f44f 7196 	mov.w	r1, #300	; 0x12c
 8000fce:	4880      	ldr	r0, [pc, #512]	; (80011d0 <HAL_RCC_OscConfig+0x2a2>)
 8000fd0:	f000 fd0a 	bl	80019e8 <assert_failed>
 8000fd4:	6923      	ldr	r3, [r4, #16]
 8000fd6:	2b1f      	cmp	r3, #31
 8000fd8:	d82e      	bhi.n	8001038 <HAL_RCC_OscConfig+0x10a>
 8000fda:	4b7e      	ldr	r3, [pc, #504]	; (80011d4 <HAL_RCC_OscConfig+0x2a6>)
 8000fdc:	689b      	ldr	r3, [r3, #8]
 8000fde:	f013 0f0c 	tst.w	r3, #12
 8000fe2:	d034      	beq.n	800104e <HAL_RCC_OscConfig+0x120>
 8000fe4:	4b7b      	ldr	r3, [pc, #492]	; (80011d4 <HAL_RCC_OscConfig+0x2a6>)
 8000fe6:	689b      	ldr	r3, [r3, #8]
 8000fe8:	f003 030c 	and.w	r3, r3, #12
 8000fec:	2b08      	cmp	r3, #8
 8000fee:	d029      	beq.n	8001044 <HAL_RCC_OscConfig+0x116>
 8000ff0:	68e3      	ldr	r3, [r4, #12]
 8000ff2:	2b00      	cmp	r3, #0
 8000ff4:	d072      	beq.n	80010dc <HAL_RCC_OscConfig+0x1ae>
 8000ff6:	2201      	movs	r2, #1
 8000ff8:	4b78      	ldr	r3, [pc, #480]	; (80011dc <HAL_RCC_OscConfig+0x2ae>)
 8000ffa:	601a      	str	r2, [r3, #0]
 8000ffc:	f7ff fa60 	bl	80004c0 <HAL_GetTick>
 8001000:	4605      	mov	r5, r0
 8001002:	4b74      	ldr	r3, [pc, #464]	; (80011d4 <HAL_RCC_OscConfig+0x2a6>)
 8001004:	681b      	ldr	r3, [r3, #0]
 8001006:	f013 0f02 	tst.w	r3, #2
 800100a:	d158      	bne.n	80010be <HAL_RCC_OscConfig+0x190>
 800100c:	f7ff fa58 	bl	80004c0 <HAL_GetTick>
 8001010:	1b40      	subs	r0, r0, r5
 8001012:	2802      	cmp	r0, #2
 8001014:	d9f5      	bls.n	8001002 <HAL_RCC_OscConfig+0xd4>
 8001016:	2003      	movs	r0, #3
 8001018:	e196      	b.n	8001348 <HAL_RCC_OscConfig+0x41a>
 800101a:	f7ff fa51 	bl	80004c0 <HAL_GetTick>
 800101e:	4605      	mov	r5, r0
 8001020:	4b6c      	ldr	r3, [pc, #432]	; (80011d4 <HAL_RCC_OscConfig+0x2a6>)
 8001022:	681b      	ldr	r3, [r3, #0]
 8001024:	f413 3f00 	tst.w	r3, #131072	; 0x20000
 8001028:	d0c8      	beq.n	8000fbc <HAL_RCC_OscConfig+0x8e>
 800102a:	f7ff fa49 	bl	80004c0 <HAL_GetTick>
 800102e:	1b40      	subs	r0, r0, r5
 8001030:	2864      	cmp	r0, #100	; 0x64
 8001032:	d9f5      	bls.n	8001020 <HAL_RCC_OscConfig+0xf2>
 8001034:	2003      	movs	r0, #3
 8001036:	e187      	b.n	8001348 <HAL_RCC_OscConfig+0x41a>
 8001038:	f240 112d 	movw	r1, #301	; 0x12d
 800103c:	4864      	ldr	r0, [pc, #400]	; (80011d0 <HAL_RCC_OscConfig+0x2a2>)
 800103e:	f000 fcd3 	bl	80019e8 <assert_failed>
 8001042:	e7ca      	b.n	8000fda <HAL_RCC_OscConfig+0xac>
 8001044:	4b63      	ldr	r3, [pc, #396]	; (80011d4 <HAL_RCC_OscConfig+0x2a6>)
 8001046:	685b      	ldr	r3, [r3, #4]
 8001048:	f413 0f80 	tst.w	r3, #4194304	; 0x400000
 800104c:	d1d0      	bne.n	8000ff0 <HAL_RCC_OscConfig+0xc2>
 800104e:	4b61      	ldr	r3, [pc, #388]	; (80011d4 <HAL_RCC_OscConfig+0x2a6>)
 8001050:	681b      	ldr	r3, [r3, #0]
 8001052:	f013 0f02 	tst.w	r3, #2
 8001056:	d004      	beq.n	8001062 <HAL_RCC_OscConfig+0x134>
 8001058:	68e3      	ldr	r3, [r4, #12]
 800105a:	2b01      	cmp	r3, #1
 800105c:	d001      	beq.n	8001062 <HAL_RCC_OscConfig+0x134>
 800105e:	2001      	movs	r0, #1
 8001060:	e172      	b.n	8001348 <HAL_RCC_OscConfig+0x41a>
 8001062:	485c      	ldr	r0, [pc, #368]	; (80011d4 <HAL_RCC_OscConfig+0x2a6>)
 8001064:	6803      	ldr	r3, [r0, #0]
 8001066:	f023 03f8 	bic.w	r3, r3, #248	; 0xf8
 800106a:	6921      	ldr	r1, [r4, #16]
 800106c:	22f8      	movs	r2, #248	; 0xf8
 800106e:	fa92 f2a2 	rbit	r2, r2
 8001072:	fab2 f282 	clz	r2, r2
 8001076:	fa01 f202 	lsl.w	r2, r1, r2
 800107a:	4313      	orrs	r3, r2
 800107c:	6003      	str	r3, [r0, #0]
 800107e:	6823      	ldr	r3, [r4, #0]
 8001080:	f013 0f08 	tst.w	r3, #8
 8001084:	d04e      	beq.n	8001124 <HAL_RCC_OscConfig+0x1f6>
 8001086:	6963      	ldr	r3, [r4, #20]
 8001088:	2b01      	cmp	r3, #1
 800108a:	d904      	bls.n	8001096 <HAL_RCC_OscConfig+0x168>
 800108c:	f240 116d 	movw	r1, #365	; 0x16d
 8001090:	484f      	ldr	r0, [pc, #316]	; (80011d0 <HAL_RCC_OscConfig+0x2a2>)
 8001092:	f000 fca9 	bl	80019e8 <assert_failed>
 8001096:	6963      	ldr	r3, [r4, #20]
 8001098:	b393      	cbz	r3, 8001100 <HAL_RCC_OscConfig+0x1d2>
 800109a:	2201      	movs	r2, #1
 800109c:	4b50      	ldr	r3, [pc, #320]	; (80011e0 <HAL_RCC_OscConfig+0x2b2>)
 800109e:	601a      	str	r2, [r3, #0]
 80010a0:	f7ff fa0e 	bl	80004c0 <HAL_GetTick>
 80010a4:	4605      	mov	r5, r0
 80010a6:	4b4b      	ldr	r3, [pc, #300]	; (80011d4 <HAL_RCC_OscConfig+0x2a6>)
 80010a8:	6f5b      	ldr	r3, [r3, #116]	; 0x74
 80010aa:	f013 0f02 	tst.w	r3, #2
 80010ae:	d139      	bne.n	8001124 <HAL_RCC_OscConfig+0x1f6>
 80010b0:	f7ff fa06 	bl	80004c0 <HAL_GetTick>
 80010b4:	1b40      	subs	r0, r0, r5
 80010b6:	2802      	cmp	r0, #2
 80010b8:	d9f5      	bls.n	80010a6 <HAL_RCC_OscConfig+0x178>
 80010ba:	2003      	movs	r0, #3
 80010bc:	e144      	b.n	8001348 <HAL_RCC_OscConfig+0x41a>
 80010be:	4845      	ldr	r0, [pc, #276]	; (80011d4 <HAL_RCC_OscConfig+0x2a6>)
 80010c0:	6803      	ldr	r3, [r0, #0]
 80010c2:	f023 03f8 	bic.w	r3, r3, #248	; 0xf8
 80010c6:	6921      	ldr	r1, [r4, #16]
 80010c8:	22f8      	movs	r2, #248	; 0xf8
 80010ca:	fa92 f2a2 	rbit	r2, r2
 80010ce:	fab2 f282 	clz	r2, r2
 80010d2:	fa01 f202 	lsl.w	r2, r1, r2
 80010d6:	4313      	orrs	r3, r2
 80010d8:	6003      	str	r3, [r0, #0]
 80010da:	e7d0      	b.n	800107e <HAL_RCC_OscConfig+0x150>
 80010dc:	2200      	movs	r2, #0
 80010de:	4b3f      	ldr	r3, [pc, #252]	; (80011dc <HAL_RCC_OscConfig+0x2ae>)
 80010e0:	601a      	str	r2, [r3, #0]
 80010e2:	f7ff f9ed 	bl	80004c0 <HAL_GetTick>
 80010e6:	4605      	mov	r5, r0
 80010e8:	4b3a      	ldr	r3, [pc, #232]	; (80011d4 <HAL_RCC_OscConfig+0x2a6>)
 80010ea:	681b      	ldr	r3, [r3, #0]
 80010ec:	f013 0f02 	tst.w	r3, #2
 80010f0:	d0c5      	beq.n	800107e <HAL_RCC_OscConfig+0x150>
 80010f2:	f7ff f9e5 	bl	80004c0 <HAL_GetTick>
 80010f6:	1b40      	subs	r0, r0, r5
 80010f8:	2802      	cmp	r0, #2
 80010fa:	d9f5      	bls.n	80010e8 <HAL_RCC_OscConfig+0x1ba>
 80010fc:	2003      	movs	r0, #3
 80010fe:	e123      	b.n	8001348 <HAL_RCC_OscConfig+0x41a>
 8001100:	2200      	movs	r2, #0
 8001102:	4b37      	ldr	r3, [pc, #220]	; (80011e0 <HAL_RCC_OscConfig+0x2b2>)
 8001104:	601a      	str	r2, [r3, #0]
 8001106:	f7ff f9db 	bl	80004c0 <HAL_GetTick>
 800110a:	4605      	mov	r5, r0
 800110c:	4b31      	ldr	r3, [pc, #196]	; (80011d4 <HAL_RCC_OscConfig+0x2a6>)
 800110e:	6f5b      	ldr	r3, [r3, #116]	; 0x74
 8001110:	f013 0f02 	tst.w	r3, #2
 8001114:	d006      	beq.n	8001124 <HAL_RCC_OscConfig+0x1f6>
 8001116:	f7ff f9d3 	bl	80004c0 <HAL_GetTick>
 800111a:	1b40      	subs	r0, r0, r5
 800111c:	2802      	cmp	r0, #2
 800111e:	d9f5      	bls.n	800110c <HAL_RCC_OscConfig+0x1de>
 8001120:	2003      	movs	r0, #3
 8001122:	e111      	b.n	8001348 <HAL_RCC_OscConfig+0x41a>
 8001124:	6823      	ldr	r3, [r4, #0]
 8001126:	f013 0f04 	tst.w	r3, #4
 800112a:	d05f      	beq.n	80011ec <HAL_RCC_OscConfig+0x2be>
 800112c:	68a3      	ldr	r3, [r4, #8]
 800112e:	2b01      	cmp	r3, #1
 8001130:	d906      	bls.n	8001140 <HAL_RCC_OscConfig+0x212>
 8001132:	2b05      	cmp	r3, #5
 8001134:	d004      	beq.n	8001140 <HAL_RCC_OscConfig+0x212>
 8001136:	f240 1197 	movw	r1, #407	; 0x197
 800113a:	4825      	ldr	r0, [pc, #148]	; (80011d0 <HAL_RCC_OscConfig+0x2a2>)
 800113c:	f000 fc54 	bl	80019e8 <assert_failed>
 8001140:	2300      	movs	r3, #0
 8001142:	9301      	str	r3, [sp, #4]
 8001144:	4b23      	ldr	r3, [pc, #140]	; (80011d4 <HAL_RCC_OscConfig+0x2a6>)
 8001146:	6c1a      	ldr	r2, [r3, #64]	; 0x40
 8001148:	f042 5280 	orr.w	r2, r2, #268435456	; 0x10000000
 800114c:	641a      	str	r2, [r3, #64]	; 0x40
 800114e:	6c1b      	ldr	r3, [r3, #64]	; 0x40
 8001150:	f003 5380 	and.w	r3, r3, #268435456	; 0x10000000
 8001154:	9301      	str	r3, [sp, #4]
 8001156:	9b01      	ldr	r3, [sp, #4]
 8001158:	4a22      	ldr	r2, [pc, #136]	; (80011e4 <HAL_RCC_OscConfig+0x2b6>)
 800115a:	6813      	ldr	r3, [r2, #0]
 800115c:	f443 7380 	orr.w	r3, r3, #256	; 0x100
 8001160:	6013      	str	r3, [r2, #0]
 8001162:	f7ff f9ad 	bl	80004c0 <HAL_GetTick>
 8001166:	4605      	mov	r5, r0
 8001168:	4b1e      	ldr	r3, [pc, #120]	; (80011e4 <HAL_RCC_OscConfig+0x2b6>)
 800116a:	681b      	ldr	r3, [r3, #0]
 800116c:	f413 7f80 	tst.w	r3, #256	; 0x100
 8001170:	d106      	bne.n	8001180 <HAL_RCC_OscConfig+0x252>
 8001172:	f7ff f9a5 	bl	80004c0 <HAL_GetTick>
 8001176:	1b40      	subs	r0, r0, r5
 8001178:	2802      	cmp	r0, #2
 800117a:	d9f5      	bls.n	8001168 <HAL_RCC_OscConfig+0x23a>
 800117c:	2003      	movs	r0, #3
 800117e:	e0e3      	b.n	8001348 <HAL_RCC_OscConfig+0x41a>
 8001180:	7a22      	ldrb	r2, [r4, #8]
 8001182:	4b19      	ldr	r3, [pc, #100]	; (80011e8 <HAL_RCC_OscConfig+0x2ba>)
 8001184:	701a      	strb	r2, [r3, #0]
 8001186:	68a3      	ldr	r3, [r4, #8]
 8001188:	b183      	cbz	r3, 80011ac <HAL_RCC_OscConfig+0x27e>
 800118a:	f7ff f999 	bl	80004c0 <HAL_GetTick>
 800118e:	4605      	mov	r5, r0
 8001190:	4b10      	ldr	r3, [pc, #64]	; (80011d4 <HAL_RCC_OscConfig+0x2a6>)
 8001192:	6f1b      	ldr	r3, [r3, #112]	; 0x70
 8001194:	f013 0f02 	tst.w	r3, #2
 8001198:	d128      	bne.n	80011ec <HAL_RCC_OscConfig+0x2be>
 800119a:	f7ff f991 	bl	80004c0 <HAL_GetTick>
 800119e:	1b40      	subs	r0, r0, r5
 80011a0:	f241 3388 	movw	r3, #5000	; 0x1388
 80011a4:	4298      	cmp	r0, r3
 80011a6:	d9f3      	bls.n	8001190 <HAL_RCC_OscConfig+0x262>
 80011a8:	2003      	movs	r0, #3
 80011aa:	e0cd      	b.n	8001348 <HAL_RCC_OscConfig+0x41a>
 80011ac:	f7ff f988 	bl	80004c0 <HAL_GetTick>
 80011b0:	4605      	mov	r5, r0
 80011b2:	4b08      	ldr	r3, [pc, #32]	; (80011d4 <HAL_RCC_OscConfig+0x2a6>)
 80011b4:	6f1b      	ldr	r3, [r3, #112]	; 0x70
 80011b6:	f013 0f02 	tst.w	r3, #2
 80011ba:	d017      	beq.n	80011ec <HAL_RCC_OscConfig+0x2be>
 80011bc:	f7ff f980 	bl	80004c0 <HAL_GetTick>
 80011c0:	1b40      	subs	r0, r0, r5
 80011c2:	f241 3388 	movw	r3, #5000	; 0x1388
 80011c6:	4298      	cmp	r0, r3
 80011c8:	d9f3      	bls.n	80011b2 <HAL_RCC_OscConfig+0x284>
 80011ca:	2003      	movs	r0, #3
 80011cc:	e0bc      	b.n	8001348 <HAL_RCC_OscConfig+0x41a>
 80011ce:	bf00      	nop
 80011d0:	08002cfc 	.word	0x08002cfc
 80011d4:	40023800 	.word	0x40023800
 80011d8:	40023802 	.word	0x40023802
 80011dc:	42470000 	.word	0x42470000
 80011e0:	42470e80 	.word	0x42470e80
 80011e4:	40007000 	.word	0x40007000
 80011e8:	40023870 	.word	0x40023870
 80011ec:	69a3      	ldr	r3, [r4, #24]
 80011ee:	2b02      	cmp	r3, #2
 80011f0:	d81f      	bhi.n	8001232 <HAL_RCC_OscConfig+0x304>
 80011f2:	69a3      	ldr	r3, [r4, #24]
 80011f4:	2b00      	cmp	r3, #0
 80011f6:	f000 80a6 	beq.w	8001346 <HAL_RCC_OscConfig+0x418>
 80011fa:	4a55      	ldr	r2, [pc, #340]	; (8001350 <HAL_RCC_OscConfig+0x422>)
 80011fc:	6892      	ldr	r2, [r2, #8]
 80011fe:	f002 020c 	and.w	r2, r2, #12
 8001202:	2a08      	cmp	r2, #8
 8001204:	f000 80a2 	beq.w	800134c <HAL_RCC_OscConfig+0x41e>
 8001208:	2b02      	cmp	r3, #2
 800120a:	d018      	beq.n	800123e <HAL_RCC_OscConfig+0x310>
 800120c:	2200      	movs	r2, #0
 800120e:	4b51      	ldr	r3, [pc, #324]	; (8001354 <HAL_RCC_OscConfig+0x426>)
 8001210:	601a      	str	r2, [r3, #0]
 8001212:	f7ff f955 	bl	80004c0 <HAL_GetTick>
 8001216:	4604      	mov	r4, r0
 8001218:	4b4d      	ldr	r3, [pc, #308]	; (8001350 <HAL_RCC_OscConfig+0x422>)
 800121a:	681b      	ldr	r3, [r3, #0]
 800121c:	f013 7f00 	tst.w	r3, #33554432	; 0x2000000
 8001220:	f000 808d 	beq.w	800133e <HAL_RCC_OscConfig+0x410>
 8001224:	f7ff f94c 	bl	80004c0 <HAL_GetTick>
 8001228:	1b00      	subs	r0, r0, r4
 800122a:	2802      	cmp	r0, #2
 800122c:	d9f4      	bls.n	8001218 <HAL_RCC_OscConfig+0x2ea>
 800122e:	2003      	movs	r0, #3
 8001230:	e08a      	b.n	8001348 <HAL_RCC_OscConfig+0x41a>
 8001232:	f44f 71e6 	mov.w	r1, #460	; 0x1cc
 8001236:	4848      	ldr	r0, [pc, #288]	; (8001358 <HAL_RCC_OscConfig+0x42a>)
 8001238:	f000 fbd6 	bl	80019e8 <assert_failed>
 800123c:	e7d9      	b.n	80011f2 <HAL_RCC_OscConfig+0x2c4>
 800123e:	69e3      	ldr	r3, [r4, #28]
 8001240:	b13b      	cbz	r3, 8001252 <HAL_RCC_OscConfig+0x324>
 8001242:	f5b3 0f80 	cmp.w	r3, #4194304	; 0x400000
 8001246:	d004      	beq.n	8001252 <HAL_RCC_OscConfig+0x324>
 8001248:	f240 11d5 	movw	r1, #469	; 0x1d5
 800124c:	4842      	ldr	r0, [pc, #264]	; (8001358 <HAL_RCC_OscConfig+0x42a>)
 800124e:	f000 fbcb 	bl	80019e8 <assert_failed>
 8001252:	6a23      	ldr	r3, [r4, #32]
 8001254:	2b3f      	cmp	r3, #63	; 0x3f
 8001256:	d828      	bhi.n	80012aa <HAL_RCC_OscConfig+0x37c>
 8001258:	6a63      	ldr	r3, [r4, #36]	; 0x24
 800125a:	3b32      	subs	r3, #50	; 0x32
 800125c:	f5b3 7fbf 	cmp.w	r3, #382	; 0x17e
 8001260:	d829      	bhi.n	80012b6 <HAL_RCC_OscConfig+0x388>
 8001262:	6aa3      	ldr	r3, [r4, #40]	; 0x28
 8001264:	2b02      	cmp	r3, #2
 8001266:	d00a      	beq.n	800127e <HAL_RCC_OscConfig+0x350>
 8001268:	2b04      	cmp	r3, #4
 800126a:	d008      	beq.n	800127e <HAL_RCC_OscConfig+0x350>
 800126c:	2b06      	cmp	r3, #6
 800126e:	d006      	beq.n	800127e <HAL_RCC_OscConfig+0x350>
 8001270:	2b08      	cmp	r3, #8
 8001272:	d004      	beq.n	800127e <HAL_RCC_OscConfig+0x350>
 8001274:	f44f 71ec 	mov.w	r1, #472	; 0x1d8
 8001278:	4837      	ldr	r0, [pc, #220]	; (8001358 <HAL_RCC_OscConfig+0x42a>)
 800127a:	f000 fbb5 	bl	80019e8 <assert_failed>
 800127e:	6ae3      	ldr	r3, [r4, #44]	; 0x2c
 8001280:	3b04      	subs	r3, #4
 8001282:	2b0b      	cmp	r3, #11
 8001284:	d81d      	bhi.n	80012c2 <HAL_RCC_OscConfig+0x394>
 8001286:	2200      	movs	r2, #0
 8001288:	4b32      	ldr	r3, [pc, #200]	; (8001354 <HAL_RCC_OscConfig+0x426>)
 800128a:	601a      	str	r2, [r3, #0]
 800128c:	f7ff f918 	bl	80004c0 <HAL_GetTick>
 8001290:	4605      	mov	r5, r0
 8001292:	4b2f      	ldr	r3, [pc, #188]	; (8001350 <HAL_RCC_OscConfig+0x422>)
 8001294:	681b      	ldr	r3, [r3, #0]
 8001296:	f013 7f00 	tst.w	r3, #33554432	; 0x2000000
 800129a:	d018      	beq.n	80012ce <HAL_RCC_OscConfig+0x3a0>
 800129c:	f7ff f910 	bl	80004c0 <HAL_GetTick>
 80012a0:	1b40      	subs	r0, r0, r5
 80012a2:	2802      	cmp	r0, #2
 80012a4:	d9f5      	bls.n	8001292 <HAL_RCC_OscConfig+0x364>
 80012a6:	2003      	movs	r0, #3
 80012a8:	e04e      	b.n	8001348 <HAL_RCC_OscConfig+0x41a>
 80012aa:	f44f 71eb 	mov.w	r1, #470	; 0x1d6
 80012ae:	482a      	ldr	r0, [pc, #168]	; (8001358 <HAL_RCC_OscConfig+0x42a>)
 80012b0:	f000 fb9a 	bl	80019e8 <assert_failed>
 80012b4:	e7d0      	b.n	8001258 <HAL_RCC_OscConfig+0x32a>
 80012b6:	f240 11d7 	movw	r1, #471	; 0x1d7
 80012ba:	4827      	ldr	r0, [pc, #156]	; (8001358 <HAL_RCC_OscConfig+0x42a>)
 80012bc:	f000 fb94 	bl	80019e8 <assert_failed>
 80012c0:	e7cf      	b.n	8001262 <HAL_RCC_OscConfig+0x334>
 80012c2:	f240 11d9 	movw	r1, #473	; 0x1d9
 80012c6:	4824      	ldr	r0, [pc, #144]	; (8001358 <HAL_RCC_OscConfig+0x42a>)
 80012c8:	f000 fb8e 	bl	80019e8 <assert_failed>
 80012cc:	e7db      	b.n	8001286 <HAL_RCC_OscConfig+0x358>
 80012ce:	69e3      	ldr	r3, [r4, #28]
 80012d0:	6a22      	ldr	r2, [r4, #32]
 80012d2:	4313      	orrs	r3, r2
 80012d4:	6a61      	ldr	r1, [r4, #36]	; 0x24
 80012d6:	f647 72c0 	movw	r2, #32704	; 0x7fc0
 80012da:	fa92 f2a2 	rbit	r2, r2
 80012de:	fab2 f282 	clz	r2, r2
 80012e2:	fa01 f202 	lsl.w	r2, r1, r2
 80012e6:	4313      	orrs	r3, r2
 80012e8:	6aa2      	ldr	r2, [r4, #40]	; 0x28
 80012ea:	0852      	lsrs	r2, r2, #1
 80012ec:	3a01      	subs	r2, #1
 80012ee:	f44f 3140 	mov.w	r1, #196608	; 0x30000
 80012f2:	fa91 f1a1 	rbit	r1, r1
 80012f6:	fab1 f181 	clz	r1, r1
 80012fa:	408a      	lsls	r2, r1
 80012fc:	4313      	orrs	r3, r2
 80012fe:	6ae1      	ldr	r1, [r4, #44]	; 0x2c
 8001300:	f04f 6270 	mov.w	r2, #251658240	; 0xf000000
 8001304:	fa92 f2a2 	rbit	r2, r2
 8001308:	fab2 f282 	clz	r2, r2
 800130c:	fa01 f202 	lsl.w	r2, r1, r2
 8001310:	4313      	orrs	r3, r2
 8001312:	4a0f      	ldr	r2, [pc, #60]	; (8001350 <HAL_RCC_OscConfig+0x422>)
 8001314:	6053      	str	r3, [r2, #4]
 8001316:	2201      	movs	r2, #1
 8001318:	4b0e      	ldr	r3, [pc, #56]	; (8001354 <HAL_RCC_OscConfig+0x426>)
 800131a:	601a      	str	r2, [r3, #0]
 800131c:	f7ff f8d0 	bl	80004c0 <HAL_GetTick>
 8001320:	4604      	mov	r4, r0
 8001322:	4b0b      	ldr	r3, [pc, #44]	; (8001350 <HAL_RCC_OscConfig+0x422>)
 8001324:	681b      	ldr	r3, [r3, #0]
 8001326:	f013 7f00 	tst.w	r3, #33554432	; 0x2000000
 800132a:	d106      	bne.n	800133a <HAL_RCC_OscConfig+0x40c>
 800132c:	f7ff f8c8 	bl	80004c0 <HAL_GetTick>
 8001330:	1b00      	subs	r0, r0, r4
 8001332:	2802      	cmp	r0, #2
 8001334:	d9f5      	bls.n	8001322 <HAL_RCC_OscConfig+0x3f4>
 8001336:	2003      	movs	r0, #3
 8001338:	e006      	b.n	8001348 <HAL_RCC_OscConfig+0x41a>
 800133a:	2000      	movs	r0, #0
 800133c:	e004      	b.n	8001348 <HAL_RCC_OscConfig+0x41a>
 800133e:	2000      	movs	r0, #0
 8001340:	e002      	b.n	8001348 <HAL_RCC_OscConfig+0x41a>
 8001342:	2001      	movs	r0, #1
 8001344:	e000      	b.n	8001348 <HAL_RCC_OscConfig+0x41a>
 8001346:	2000      	movs	r0, #0
 8001348:	b003      	add	sp, #12
 800134a:	bd30      	pop	{r4, r5, pc}
 800134c:	2001      	movs	r0, #1
 800134e:	e7fb      	b.n	8001348 <HAL_RCC_OscConfig+0x41a>
 8001350:	40023800 	.word	0x40023800
 8001354:	42470060 	.word	0x42470060
 8001358:	08002cfc 	.word	0x08002cfc

0800135c <HAL_RCC_MCOConfig>:
 800135c:	b570      	push	{r4, r5, r6, lr}
 800135e:	b088      	sub	sp, #32
 8001360:	4606      	mov	r6, r0
 8001362:	460c      	mov	r4, r1
 8001364:	4615      	mov	r5, r2
 8001366:	2801      	cmp	r0, #1
 8001368:	d904      	bls.n	8001374 <HAL_RCC_MCOConfig+0x18>
 800136a:	f44f 713f 	mov.w	r1, #764	; 0x2fc
 800136e:	483b      	ldr	r0, [pc, #236]	; (800145c <HAL_RCC_MCOConfig+0x100>)
 8001370:	f000 fb3a 	bl	80019e8 <assert_failed>
 8001374:	b185      	cbz	r5, 8001398 <HAL_RCC_MCOConfig+0x3c>
 8001376:	f1b5 6f80 	cmp.w	r5, #67108864	; 0x4000000
 800137a:	d00d      	beq.n	8001398 <HAL_RCC_MCOConfig+0x3c>
 800137c:	f1b5 6fa0 	cmp.w	r5, #83886080	; 0x5000000
 8001380:	d00a      	beq.n	8001398 <HAL_RCC_MCOConfig+0x3c>
 8001382:	f1b5 6fc0 	cmp.w	r5, #100663296	; 0x6000000
 8001386:	d007      	beq.n	8001398 <HAL_RCC_MCOConfig+0x3c>
 8001388:	f1b5 6fe0 	cmp.w	r5, #117440512	; 0x7000000
 800138c:	d004      	beq.n	8001398 <HAL_RCC_MCOConfig+0x3c>
 800138e:	f240 21fd 	movw	r1, #765	; 0x2fd
 8001392:	4832      	ldr	r0, [pc, #200]	; (800145c <HAL_RCC_MCOConfig+0x100>)
 8001394:	f000 fb28 	bl	80019e8 <assert_failed>
 8001398:	2e00      	cmp	r6, #0
 800139a:	d12f      	bne.n	80013fc <HAL_RCC_MCOConfig+0xa0>
 800139c:	b16c      	cbz	r4, 80013ba <HAL_RCC_MCOConfig+0x5e>
 800139e:	f5b4 1f00 	cmp.w	r4, #2097152	; 0x200000
 80013a2:	d00a      	beq.n	80013ba <HAL_RCC_MCOConfig+0x5e>
 80013a4:	f5b4 0f80 	cmp.w	r4, #4194304	; 0x400000
 80013a8:	d007      	beq.n	80013ba <HAL_RCC_MCOConfig+0x5e>
 80013aa:	f5b4 0fc0 	cmp.w	r4, #6291456	; 0x600000
 80013ae:	d004      	beq.n	80013ba <HAL_RCC_MCOConfig+0x5e>
 80013b0:	f240 3101 	movw	r1, #769	; 0x301
 80013b4:	4829      	ldr	r0, [pc, #164]	; (800145c <HAL_RCC_MCOConfig+0x100>)
 80013b6:	f000 fb17 	bl	80019e8 <assert_failed>
 80013ba:	2300      	movs	r3, #0
 80013bc:	9301      	str	r3, [sp, #4]
 80013be:	4e28      	ldr	r6, [pc, #160]	; (8001460 <HAL_RCC_MCOConfig+0x104>)
 80013c0:	6b32      	ldr	r2, [r6, #48]	; 0x30
 80013c2:	f042 0201 	orr.w	r2, r2, #1
 80013c6:	6332      	str	r2, [r6, #48]	; 0x30
 80013c8:	6b32      	ldr	r2, [r6, #48]	; 0x30
 80013ca:	f002 0201 	and.w	r2, r2, #1
 80013ce:	9201      	str	r2, [sp, #4]
 80013d0:	9a01      	ldr	r2, [sp, #4]
 80013d2:	f44f 7280 	mov.w	r2, #256	; 0x100
 80013d6:	9203      	str	r2, [sp, #12]
 80013d8:	2202      	movs	r2, #2
 80013da:	9204      	str	r2, [sp, #16]
 80013dc:	2203      	movs	r2, #3
 80013de:	9206      	str	r2, [sp, #24]
 80013e0:	9305      	str	r3, [sp, #20]
 80013e2:	9307      	str	r3, [sp, #28]
 80013e4:	a903      	add	r1, sp, #12
 80013e6:	481f      	ldr	r0, [pc, #124]	; (8001464 <HAL_RCC_MCOConfig+0x108>)
 80013e8:	f7ff faf4 	bl	80009d4 <HAL_GPIO_Init>
 80013ec:	68b3      	ldr	r3, [r6, #8]
 80013ee:	f023 63ec 	bic.w	r3, r3, #123731968	; 0x7600000
 80013f2:	432c      	orrs	r4, r5
 80013f4:	431c      	orrs	r4, r3
 80013f6:	60b4      	str	r4, [r6, #8]
 80013f8:	b008      	add	sp, #32
 80013fa:	bd70      	pop	{r4, r5, r6, pc}
 80013fc:	b16c      	cbz	r4, 800141a <HAL_RCC_MCOConfig+0xbe>
 80013fe:	f1b4 4f80 	cmp.w	r4, #1073741824	; 0x40000000
 8001402:	d00a      	beq.n	800141a <HAL_RCC_MCOConfig+0xbe>
 8001404:	f1b4 4f00 	cmp.w	r4, #2147483648	; 0x80000000
 8001408:	d007      	beq.n	800141a <HAL_RCC_MCOConfig+0xbe>
 800140a:	f1b4 4f40 	cmp.w	r4, #3221225472	; 0xc0000000
 800140e:	d004      	beq.n	800141a <HAL_RCC_MCOConfig+0xbe>
 8001410:	f240 3119 	movw	r1, #793	; 0x319
 8001414:	4811      	ldr	r0, [pc, #68]	; (800145c <HAL_RCC_MCOConfig+0x100>)
 8001416:	f000 fae7 	bl	80019e8 <assert_failed>
 800141a:	2300      	movs	r3, #0
 800141c:	9302      	str	r3, [sp, #8]
 800141e:	4e10      	ldr	r6, [pc, #64]	; (8001460 <HAL_RCC_MCOConfig+0x104>)
 8001420:	6b32      	ldr	r2, [r6, #48]	; 0x30
 8001422:	f042 0204 	orr.w	r2, r2, #4
 8001426:	6332      	str	r2, [r6, #48]	; 0x30
 8001428:	6b32      	ldr	r2, [r6, #48]	; 0x30
 800142a:	f002 0204 	and.w	r2, r2, #4
 800142e:	9202      	str	r2, [sp, #8]
 8001430:	9a02      	ldr	r2, [sp, #8]
 8001432:	f44f 7200 	mov.w	r2, #512	; 0x200
 8001436:	9203      	str	r2, [sp, #12]
 8001438:	2202      	movs	r2, #2
 800143a:	9204      	str	r2, [sp, #16]
 800143c:	2203      	movs	r2, #3
 800143e:	9206      	str	r2, [sp, #24]
 8001440:	9305      	str	r3, [sp, #20]
 8001442:	9307      	str	r3, [sp, #28]
 8001444:	a903      	add	r1, sp, #12
 8001446:	4808      	ldr	r0, [pc, #32]	; (8001468 <HAL_RCC_MCOConfig+0x10c>)
 8001448:	f7ff fac4 	bl	80009d4 <HAL_GPIO_Init>
 800144c:	68b3      	ldr	r3, [r6, #8]
 800144e:	f023 4378 	bic.w	r3, r3, #4160749568	; 0xf8000000
 8001452:	ea44 04c5 	orr.w	r4, r4, r5, lsl #3
 8001456:	431c      	orrs	r4, r3
 8001458:	60b4      	str	r4, [r6, #8]
 800145a:	e7cd      	b.n	80013f8 <HAL_RCC_MCOConfig+0x9c>
 800145c:	08002cfc 	.word	0x08002cfc
 8001460:	40023800 	.word	0x40023800
 8001464:	40020000 	.word	0x40020000
 8001468:	40020800 	.word	0x40020800

0800146c <HAL_RCC_EnableCSS>:
 800146c:	2201      	movs	r2, #1
 800146e:	4b01      	ldr	r3, [pc, #4]	; (8001474 <HAL_RCC_EnableCSS+0x8>)
 8001470:	601a      	str	r2, [r3, #0]
 8001472:	4770      	bx	lr
 8001474:	4247004c 	.word	0x4247004c

08001478 <HAL_RCC_DisableCSS>:
 8001478:	2200      	movs	r2, #0
 800147a:	4b01      	ldr	r3, [pc, #4]	; (8001480 <HAL_RCC_DisableCSS+0x8>)
 800147c:	601a      	str	r2, [r3, #0]
 800147e:	4770      	bx	lr
 8001480:	4247004c 	.word	0x4247004c

08001484 <HAL_RCC_GetSysClockFreq>:
 8001484:	4b21      	ldr	r3, [pc, #132]	; (800150c <HAL_RCC_GetSysClockFreq+0x88>)
 8001486:	689b      	ldr	r3, [r3, #8]
 8001488:	f003 030c 	and.w	r3, r3, #12
 800148c:	2b04      	cmp	r3, #4
 800148e:	d03a      	beq.n	8001506 <HAL_RCC_GetSysClockFreq+0x82>
 8001490:	2b08      	cmp	r3, #8
 8001492:	d001      	beq.n	8001498 <HAL_RCC_GetSysClockFreq+0x14>
 8001494:	481e      	ldr	r0, [pc, #120]	; (8001510 <HAL_RCC_GetSysClockFreq+0x8c>)
 8001496:	4770      	bx	lr
 8001498:	4b1c      	ldr	r3, [pc, #112]	; (800150c <HAL_RCC_GetSysClockFreq+0x88>)
 800149a:	6858      	ldr	r0, [r3, #4]
 800149c:	f000 003f 	and.w	r0, r0, #63	; 0x3f
 80014a0:	685b      	ldr	r3, [r3, #4]
 80014a2:	f413 0f80 	tst.w	r3, #4194304	; 0x400000
 80014a6:	d01e      	beq.n	80014e6 <HAL_RCC_GetSysClockFreq+0x62>
 80014a8:	4a1a      	ldr	r2, [pc, #104]	; (8001514 <HAL_RCC_GetSysClockFreq+0x90>)
 80014aa:	fbb2 f2f0 	udiv	r2, r2, r0
 80014ae:	4b17      	ldr	r3, [pc, #92]	; (800150c <HAL_RCC_GetSysClockFreq+0x88>)
 80014b0:	6858      	ldr	r0, [r3, #4]
 80014b2:	f647 73c0 	movw	r3, #32704	; 0x7fc0
 80014b6:	4018      	ands	r0, r3
 80014b8:	fa93 f3a3 	rbit	r3, r3
 80014bc:	fab3 f383 	clz	r3, r3
 80014c0:	40d8      	lsrs	r0, r3
 80014c2:	fb00 f002 	mul.w	r0, r0, r2
 80014c6:	4b11      	ldr	r3, [pc, #68]	; (800150c <HAL_RCC_GetSysClockFreq+0x88>)
 80014c8:	685b      	ldr	r3, [r3, #4]
 80014ca:	f403 3340 	and.w	r3, r3, #196608	; 0x30000
 80014ce:	f44f 3240 	mov.w	r2, #196608	; 0x30000
 80014d2:	fa92 f2a2 	rbit	r2, r2
 80014d6:	fab2 f282 	clz	r2, r2
 80014da:	40d3      	lsrs	r3, r2
 80014dc:	3301      	adds	r3, #1
 80014de:	005b      	lsls	r3, r3, #1
 80014e0:	fbb0 f0f3 	udiv	r0, r0, r3
 80014e4:	4770      	bx	lr
 80014e6:	4a0a      	ldr	r2, [pc, #40]	; (8001510 <HAL_RCC_GetSysClockFreq+0x8c>)
 80014e8:	fbb2 f2f0 	udiv	r2, r2, r0
 80014ec:	4b07      	ldr	r3, [pc, #28]	; (800150c <HAL_RCC_GetSysClockFreq+0x88>)
 80014ee:	6858      	ldr	r0, [r3, #4]
 80014f0:	f647 73c0 	movw	r3, #32704	; 0x7fc0
 80014f4:	4018      	ands	r0, r3
 80014f6:	fa93 f3a3 	rbit	r3, r3
 80014fa:	fab3 f383 	clz	r3, r3
 80014fe:	40d8      	lsrs	r0, r3
 8001500:	fb00 f002 	mul.w	r0, r0, r2
 8001504:	e7df      	b.n	80014c6 <HAL_RCC_GetSysClockFreq+0x42>
 8001506:	4803      	ldr	r0, [pc, #12]	; (8001514 <HAL_RCC_GetSysClockFreq+0x90>)
 8001508:	4770      	bx	lr
 800150a:	bf00      	nop
 800150c:	40023800 	.word	0x40023800
 8001510:	00f42400 	.word	0x00f42400
 8001514:	007a1200 	.word	0x007a1200

08001518 <HAL_RCC_ClockConfig>:
 8001518:	b570      	push	{r4, r5, r6, lr}
 800151a:	4604      	mov	r4, r0
 800151c:	460d      	mov	r5, r1
 800151e:	6803      	ldr	r3, [r0, #0]
 8001520:	3b01      	subs	r3, #1
 8001522:	2b0e      	cmp	r3, #14
 8001524:	d811      	bhi.n	800154a <HAL_RCC_ClockConfig+0x32>
 8001526:	2d07      	cmp	r5, #7
 8001528:	d815      	bhi.n	8001556 <HAL_RCC_ClockConfig+0x3e>
 800152a:	4b8a      	ldr	r3, [pc, #552]	; (8001754 <HAL_RCC_ClockConfig+0x23c>)
 800152c:	681b      	ldr	r3, [r3, #0]
 800152e:	f003 030f 	and.w	r3, r3, #15
 8001532:	429d      	cmp	r5, r3
 8001534:	d915      	bls.n	8001562 <HAL_RCC_ClockConfig+0x4a>
 8001536:	b2eb      	uxtb	r3, r5
 8001538:	4a86      	ldr	r2, [pc, #536]	; (8001754 <HAL_RCC_ClockConfig+0x23c>)
 800153a:	7013      	strb	r3, [r2, #0]
 800153c:	6813      	ldr	r3, [r2, #0]
 800153e:	f003 030f 	and.w	r3, r3, #15
 8001542:	429d      	cmp	r5, r3
 8001544:	d00d      	beq.n	8001562 <HAL_RCC_ClockConfig+0x4a>
 8001546:	2001      	movs	r0, #1
 8001548:	bd70      	pop	{r4, r5, r6, pc}
 800154a:	f240 2137 	movw	r1, #567	; 0x237
 800154e:	4882      	ldr	r0, [pc, #520]	; (8001758 <HAL_RCC_ClockConfig+0x240>)
 8001550:	f000 fa4a 	bl	80019e8 <assert_failed>
 8001554:	e7e7      	b.n	8001526 <HAL_RCC_ClockConfig+0xe>
 8001556:	f44f 710e 	mov.w	r1, #568	; 0x238
 800155a:	487f      	ldr	r0, [pc, #508]	; (8001758 <HAL_RCC_ClockConfig+0x240>)
 800155c:	f000 fa44 	bl	80019e8 <assert_failed>
 8001560:	e7e3      	b.n	800152a <HAL_RCC_ClockConfig+0x12>
 8001562:	6823      	ldr	r3, [r4, #0]
 8001564:	f013 0f02 	tst.w	r3, #2
 8001568:	d01d      	beq.n	80015a6 <HAL_RCC_ClockConfig+0x8e>
 800156a:	68a3      	ldr	r3, [r4, #8]
 800156c:	b1a3      	cbz	r3, 8001598 <HAL_RCC_ClockConfig+0x80>
 800156e:	2b80      	cmp	r3, #128	; 0x80
 8001570:	d012      	beq.n	8001598 <HAL_RCC_ClockConfig+0x80>
 8001572:	2b90      	cmp	r3, #144	; 0x90
 8001574:	d010      	beq.n	8001598 <HAL_RCC_ClockConfig+0x80>
 8001576:	2ba0      	cmp	r3, #160	; 0xa0
 8001578:	d00e      	beq.n	8001598 <HAL_RCC_ClockConfig+0x80>
 800157a:	2bb0      	cmp	r3, #176	; 0xb0
 800157c:	d00c      	beq.n	8001598 <HAL_RCC_ClockConfig+0x80>
 800157e:	2bc0      	cmp	r3, #192	; 0xc0
 8001580:	d00a      	beq.n	8001598 <HAL_RCC_ClockConfig+0x80>
 8001582:	2bd0      	cmp	r3, #208	; 0xd0
 8001584:	d008      	beq.n	8001598 <HAL_RCC_ClockConfig+0x80>
 8001586:	2be0      	cmp	r3, #224	; 0xe0
 8001588:	d006      	beq.n	8001598 <HAL_RCC_ClockConfig+0x80>
 800158a:	2bf0      	cmp	r3, #240	; 0xf0
 800158c:	d004      	beq.n	8001598 <HAL_RCC_ClockConfig+0x80>
 800158e:	f240 214f 	movw	r1, #591	; 0x24f
 8001592:	4871      	ldr	r0, [pc, #452]	; (8001758 <HAL_RCC_ClockConfig+0x240>)
 8001594:	f000 fa28 	bl	80019e8 <assert_failed>
 8001598:	4a70      	ldr	r2, [pc, #448]	; (800175c <HAL_RCC_ClockConfig+0x244>)
 800159a:	6893      	ldr	r3, [r2, #8]
 800159c:	f023 03f0 	bic.w	r3, r3, #240	; 0xf0
 80015a0:	68a1      	ldr	r1, [r4, #8]
 80015a2:	430b      	orrs	r3, r1
 80015a4:	6093      	str	r3, [r2, #8]
 80015a6:	6823      	ldr	r3, [r4, #0]
 80015a8:	f013 0f01 	tst.w	r3, #1
 80015ac:	d06d      	beq.n	800168a <HAL_RCC_ClockConfig+0x172>
 80015ae:	6863      	ldr	r3, [r4, #4]
 80015b0:	2b03      	cmp	r3, #3
 80015b2:	d829      	bhi.n	8001608 <HAL_RCC_ClockConfig+0xf0>
 80015b4:	6863      	ldr	r3, [r4, #4]
 80015b6:	2b01      	cmp	r3, #1
 80015b8:	d02c      	beq.n	8001614 <HAL_RCC_ClockConfig+0xfc>
 80015ba:	1e9a      	subs	r2, r3, #2
 80015bc:	2a01      	cmp	r2, #1
 80015be:	d930      	bls.n	8001622 <HAL_RCC_ClockConfig+0x10a>
 80015c0:	4a66      	ldr	r2, [pc, #408]	; (800175c <HAL_RCC_ClockConfig+0x244>)
 80015c2:	6812      	ldr	r2, [r2, #0]
 80015c4:	f012 0f02 	tst.w	r2, #2
 80015c8:	f000 80c2 	beq.w	8001750 <HAL_RCC_ClockConfig+0x238>
 80015cc:	4963      	ldr	r1, [pc, #396]	; (800175c <HAL_RCC_ClockConfig+0x244>)
 80015ce:	688a      	ldr	r2, [r1, #8]
 80015d0:	f022 0203 	bic.w	r2, r2, #3
 80015d4:	4313      	orrs	r3, r2
 80015d6:	608b      	str	r3, [r1, #8]
 80015d8:	f7fe ff72 	bl	80004c0 <HAL_GetTick>
 80015dc:	4606      	mov	r6, r0
 80015de:	6863      	ldr	r3, [r4, #4]
 80015e0:	2b01      	cmp	r3, #1
 80015e2:	d025      	beq.n	8001630 <HAL_RCC_ClockConfig+0x118>
 80015e4:	2b02      	cmp	r3, #2
 80015e6:	d032      	beq.n	800164e <HAL_RCC_ClockConfig+0x136>
 80015e8:	2b03      	cmp	r3, #3
 80015ea:	d03f      	beq.n	800166c <HAL_RCC_ClockConfig+0x154>
 80015ec:	4b5b      	ldr	r3, [pc, #364]	; (800175c <HAL_RCC_ClockConfig+0x244>)
 80015ee:	689b      	ldr	r3, [r3, #8]
 80015f0:	f013 0f0c 	tst.w	r3, #12
 80015f4:	d049      	beq.n	800168a <HAL_RCC_ClockConfig+0x172>
 80015f6:	f7fe ff63 	bl	80004c0 <HAL_GetTick>
 80015fa:	1b80      	subs	r0, r0, r6
 80015fc:	f241 3388 	movw	r3, #5000	; 0x1388
 8001600:	4298      	cmp	r0, r3
 8001602:	d9f3      	bls.n	80015ec <HAL_RCC_ClockConfig+0xd4>
 8001604:	2003      	movs	r0, #3
 8001606:	bd70      	pop	{r4, r5, r6, pc}
 8001608:	f240 2156 	movw	r1, #598	; 0x256
 800160c:	4852      	ldr	r0, [pc, #328]	; (8001758 <HAL_RCC_ClockConfig+0x240>)
 800160e:	f000 f9eb 	bl	80019e8 <assert_failed>
 8001612:	e7cf      	b.n	80015b4 <HAL_RCC_ClockConfig+0x9c>
 8001614:	4a51      	ldr	r2, [pc, #324]	; (800175c <HAL_RCC_ClockConfig+0x244>)
 8001616:	6812      	ldr	r2, [r2, #0]
 8001618:	f412 3f00 	tst.w	r2, #131072	; 0x20000
 800161c:	d1d6      	bne.n	80015cc <HAL_RCC_ClockConfig+0xb4>
 800161e:	2001      	movs	r0, #1
 8001620:	bd70      	pop	{r4, r5, r6, pc}
 8001622:	4a4e      	ldr	r2, [pc, #312]	; (800175c <HAL_RCC_ClockConfig+0x244>)
 8001624:	6812      	ldr	r2, [r2, #0]
 8001626:	f012 7f00 	tst.w	r2, #33554432	; 0x2000000
 800162a:	d1cf      	bne.n	80015cc <HAL_RCC_ClockConfig+0xb4>
 800162c:	2001      	movs	r0, #1
 800162e:	bd70      	pop	{r4, r5, r6, pc}
 8001630:	4b4a      	ldr	r3, [pc, #296]	; (800175c <HAL_RCC_ClockConfig+0x244>)
 8001632:	689b      	ldr	r3, [r3, #8]
 8001634:	f003 030c 	and.w	r3, r3, #12
 8001638:	2b04      	cmp	r3, #4
 800163a:	d026      	beq.n	800168a <HAL_RCC_ClockConfig+0x172>
 800163c:	f7fe ff40 	bl	80004c0 <HAL_GetTick>
 8001640:	1b80      	subs	r0, r0, r6
 8001642:	f241 3388 	movw	r3, #5000	; 0x1388
 8001646:	4298      	cmp	r0, r3
 8001648:	d9f2      	bls.n	8001630 <HAL_RCC_ClockConfig+0x118>
 800164a:	2003      	movs	r0, #3
 800164c:	bd70      	pop	{r4, r5, r6, pc}
 800164e:	4b43      	ldr	r3, [pc, #268]	; (800175c <HAL_RCC_ClockConfig+0x244>)
 8001650:	689b      	ldr	r3, [r3, #8]
 8001652:	f003 030c 	and.w	r3, r3, #12
 8001656:	2b08      	cmp	r3, #8
 8001658:	d017      	beq.n	800168a <HAL_RCC_ClockConfig+0x172>
 800165a:	f7fe ff31 	bl	80004c0 <HAL_GetTick>
 800165e:	1b80      	subs	r0, r0, r6
 8001660:	f241 3388 	movw	r3, #5000	; 0x1388
 8001664:	4298      	cmp	r0, r3
 8001666:	d9f2      	bls.n	800164e <HAL_RCC_ClockConfig+0x136>
 8001668:	2003      	movs	r0, #3
 800166a:	bd70      	pop	{r4, r5, r6, pc}
 800166c:	4b3b      	ldr	r3, [pc, #236]	; (800175c <HAL_RCC_ClockConfig+0x244>)
 800166e:	689b      	ldr	r3, [r3, #8]
 8001670:	f003 030c 	and.w	r3, r3, #12
 8001674:	2b0c      	cmp	r3, #12
 8001676:	d008      	beq.n	800168a <HAL_RCC_ClockConfig+0x172>
 8001678:	f7fe ff22 	bl	80004c0 <HAL_GetTick>
 800167c:	1b80      	subs	r0, r0, r6
 800167e:	f241 3388 	movw	r3, #5000	; 0x1388
 8001682:	4298      	cmp	r0, r3
 8001684:	d9f2      	bls.n	800166c <HAL_RCC_ClockConfig+0x154>
 8001686:	2003      	movs	r0, #3
 8001688:	bd70      	pop	{r4, r5, r6, pc}
 800168a:	4b32      	ldr	r3, [pc, #200]	; (8001754 <HAL_RCC_ClockConfig+0x23c>)
 800168c:	681b      	ldr	r3, [r3, #0]
 800168e:	f003 030f 	and.w	r3, r3, #15
 8001692:	429d      	cmp	r5, r3
 8001694:	d209      	bcs.n	80016aa <HAL_RCC_ClockConfig+0x192>
 8001696:	b2ea      	uxtb	r2, r5
 8001698:	4b2e      	ldr	r3, [pc, #184]	; (8001754 <HAL_RCC_ClockConfig+0x23c>)
 800169a:	701a      	strb	r2, [r3, #0]
 800169c:	681b      	ldr	r3, [r3, #0]
 800169e:	f003 030f 	and.w	r3, r3, #15
 80016a2:	429d      	cmp	r5, r3
 80016a4:	d001      	beq.n	80016aa <HAL_RCC_ClockConfig+0x192>
 80016a6:	2001      	movs	r0, #1
 80016a8:	bd70      	pop	{r4, r5, r6, pc}
 80016aa:	6823      	ldr	r3, [r4, #0]
 80016ac:	f013 0f04 	tst.w	r3, #4
 80016b0:	d019      	beq.n	80016e6 <HAL_RCC_ClockConfig+0x1ce>
 80016b2:	68e3      	ldr	r3, [r4, #12]
 80016b4:	b183      	cbz	r3, 80016d8 <HAL_RCC_ClockConfig+0x1c0>
 80016b6:	f5b3 5f80 	cmp.w	r3, #4096	; 0x1000
 80016ba:	d00d      	beq.n	80016d8 <HAL_RCC_ClockConfig+0x1c0>
 80016bc:	f5b3 5fa0 	cmp.w	r3, #5120	; 0x1400
 80016c0:	d00a      	beq.n	80016d8 <HAL_RCC_ClockConfig+0x1c0>
 80016c2:	f5b3 5fc0 	cmp.w	r3, #6144	; 0x1800
 80016c6:	d007      	beq.n	80016d8 <HAL_RCC_ClockConfig+0x1c0>
 80016c8:	f5b3 5fe0 	cmp.w	r3, #7168	; 0x1c00
 80016cc:	d004      	beq.n	80016d8 <HAL_RCC_ClockConfig+0x1c0>
 80016ce:	f44f 712d 	mov.w	r1, #692	; 0x2b4
 80016d2:	4821      	ldr	r0, [pc, #132]	; (8001758 <HAL_RCC_ClockConfig+0x240>)
 80016d4:	f000 f988 	bl	80019e8 <assert_failed>
 80016d8:	4a20      	ldr	r2, [pc, #128]	; (800175c <HAL_RCC_ClockConfig+0x244>)
 80016da:	6893      	ldr	r3, [r2, #8]
 80016dc:	f423 53e0 	bic.w	r3, r3, #7168	; 0x1c00
 80016e0:	68e1      	ldr	r1, [r4, #12]
 80016e2:	430b      	orrs	r3, r1
 80016e4:	6093      	str	r3, [r2, #8]
 80016e6:	6823      	ldr	r3, [r4, #0]
 80016e8:	f013 0f08 	tst.w	r3, #8
 80016ec:	d01a      	beq.n	8001724 <HAL_RCC_ClockConfig+0x20c>
 80016ee:	6923      	ldr	r3, [r4, #16]
 80016f0:	b183      	cbz	r3, 8001714 <HAL_RCC_ClockConfig+0x1fc>
 80016f2:	f5b3 5f80 	cmp.w	r3, #4096	; 0x1000
 80016f6:	d00d      	beq.n	8001714 <HAL_RCC_ClockConfig+0x1fc>
 80016f8:	f5b3 5fa0 	cmp.w	r3, #5120	; 0x1400
 80016fc:	d00a      	beq.n	8001714 <HAL_RCC_ClockConfig+0x1fc>
 80016fe:	f5b3 5fc0 	cmp.w	r3, #6144	; 0x1800
 8001702:	d007      	beq.n	8001714 <HAL_RCC_ClockConfig+0x1fc>
 8001704:	f5b3 5fe0 	cmp.w	r3, #7168	; 0x1c00
 8001708:	d004      	beq.n	8001714 <HAL_RCC_ClockConfig+0x1fc>
 800170a:	f240 21bb 	movw	r1, #699	; 0x2bb
 800170e:	4812      	ldr	r0, [pc, #72]	; (8001758 <HAL_RCC_ClockConfig+0x240>)
 8001710:	f000 f96a 	bl	80019e8 <assert_failed>
 8001714:	4a11      	ldr	r2, [pc, #68]	; (800175c <HAL_RCC_ClockConfig+0x244>)
 8001716:	6893      	ldr	r3, [r2, #8]
 8001718:	f423 4360 	bic.w	r3, r3, #57344	; 0xe000
 800171c:	6921      	ldr	r1, [r4, #16]
 800171e:	ea43 03c1 	orr.w	r3, r3, r1, lsl #3
 8001722:	6093      	str	r3, [r2, #8]
 8001724:	f7ff feae 	bl	8001484 <HAL_RCC_GetSysClockFreq>
 8001728:	4b0c      	ldr	r3, [pc, #48]	; (800175c <HAL_RCC_ClockConfig+0x244>)
 800172a:	689b      	ldr	r3, [r3, #8]
 800172c:	f003 03f0 	and.w	r3, r3, #240	; 0xf0
 8001730:	22f0      	movs	r2, #240	; 0xf0
 8001732:	fa92 f2a2 	rbit	r2, r2
 8001736:	fab2 f282 	clz	r2, r2
 800173a:	40d3      	lsrs	r3, r2
 800173c:	4a08      	ldr	r2, [pc, #32]	; (8001760 <HAL_RCC_ClockConfig+0x248>)
 800173e:	5cd3      	ldrb	r3, [r2, r3]
 8001740:	40d8      	lsrs	r0, r3
 8001742:	4b08      	ldr	r3, [pc, #32]	; (8001764 <HAL_RCC_ClockConfig+0x24c>)
 8001744:	6018      	str	r0, [r3, #0]
 8001746:	200f      	movs	r0, #15
 8001748:	f7fe fe82 	bl	8000450 <HAL_InitTick>
 800174c:	2000      	movs	r0, #0
 800174e:	bd70      	pop	{r4, r5, r6, pc}
 8001750:	2001      	movs	r0, #1
 8001752:	bd70      	pop	{r4, r5, r6, pc}
 8001754:	40023c00 	.word	0x40023c00
 8001758:	08002cfc 	.word	0x08002cfc
 800175c:	40023800 	.word	0x40023800
 8001760:	08002cec 	.word	0x08002cec
 8001764:	2000000c 	.word	0x2000000c

08001768 <HAL_RCC_GetHCLKFreq>:
 8001768:	4b01      	ldr	r3, [pc, #4]	; (8001770 <HAL_RCC_GetHCLKFreq+0x8>)
 800176a:	6818      	ldr	r0, [r3, #0]
 800176c:	4770      	bx	lr
 800176e:	bf00      	nop
 8001770:	2000000c 	.word	0x2000000c

08001774 <HAL_RCC_GetPCLK1Freq>:
 8001774:	b508      	push	{r3, lr}
 8001776:	f7ff fff7 	bl	8001768 <HAL_RCC_GetHCLKFreq>
 800177a:	4b07      	ldr	r3, [pc, #28]	; (8001798 <HAL_RCC_GetPCLK1Freq+0x24>)
 800177c:	689b      	ldr	r3, [r3, #8]
 800177e:	f403 53e0 	and.w	r3, r3, #7168	; 0x1c00
 8001782:	f44f 52e0 	mov.w	r2, #7168	; 0x1c00
 8001786:	fa92 f2a2 	rbit	r2, r2
 800178a:	fab2 f282 	clz	r2, r2
 800178e:	40d3      	lsrs	r3, r2
 8001790:	4a02      	ldr	r2, [pc, #8]	; (800179c <HAL_RCC_GetPCLK1Freq+0x28>)
 8001792:	5cd3      	ldrb	r3, [r2, r3]
 8001794:	40d8      	lsrs	r0, r3
 8001796:	bd08      	pop	{r3, pc}
 8001798:	40023800 	.word	0x40023800
 800179c:	08002cec 	.word	0x08002cec

080017a0 <HAL_RCC_GetPCLK2Freq>:
 80017a0:	b508      	push	{r3, lr}
 80017a2:	f7ff ffe1 	bl	8001768 <HAL_RCC_GetHCLKFreq>
 80017a6:	4b07      	ldr	r3, [pc, #28]	; (80017c4 <HAL_RCC_GetPCLK2Freq+0x24>)
 80017a8:	689b      	ldr	r3, [r3, #8]
 80017aa:	f403 4360 	and.w	r3, r3, #57344	; 0xe000
 80017ae:	f44f 4260 	mov.w	r2, #57344	; 0xe000
 80017b2:	fa92 f2a2 	rbit	r2, r2
 80017b6:	fab2 f282 	clz	r2, r2
 80017ba:	40d3      	lsrs	r3, r2
 80017bc:	4a02      	ldr	r2, [pc, #8]	; (80017c8 <HAL_RCC_GetPCLK2Freq+0x28>)
 80017be:	5cd3      	ldrb	r3, [r2, r3]
 80017c0:	40d8      	lsrs	r0, r3
 80017c2:	bd08      	pop	{r3, pc}
 80017c4:	40023800 	.word	0x40023800
 80017c8:	08002cec 	.word	0x08002cec

080017cc <HAL_RCC_GetOscConfig>:
 80017cc:	230f      	movs	r3, #15
 80017ce:	6003      	str	r3, [r0, #0]
 80017d0:	4b3c      	ldr	r3, [pc, #240]	; (80018c4 <HAL_RCC_GetOscConfig+0xf8>)
 80017d2:	681b      	ldr	r3, [r3, #0]
 80017d4:	f413 2f80 	tst.w	r3, #262144	; 0x40000
 80017d8:	d055      	beq.n	8001886 <HAL_RCC_GetOscConfig+0xba>
 80017da:	2305      	movs	r3, #5
 80017dc:	6043      	str	r3, [r0, #4]
 80017de:	4b39      	ldr	r3, [pc, #228]	; (80018c4 <HAL_RCC_GetOscConfig+0xf8>)
 80017e0:	681b      	ldr	r3, [r3, #0]
 80017e2:	f013 0f01 	tst.w	r3, #1
 80017e6:	d059      	beq.n	800189c <HAL_RCC_GetOscConfig+0xd0>
 80017e8:	2301      	movs	r3, #1
 80017ea:	60c3      	str	r3, [r0, #12]
 80017ec:	4935      	ldr	r1, [pc, #212]	; (80018c4 <HAL_RCC_GetOscConfig+0xf8>)
 80017ee:	680b      	ldr	r3, [r1, #0]
 80017f0:	f003 03f8 	and.w	r3, r3, #248	; 0xf8
 80017f4:	22f8      	movs	r2, #248	; 0xf8
 80017f6:	fa92 f2a2 	rbit	r2, r2
 80017fa:	fab2 f282 	clz	r2, r2
 80017fe:	40d3      	lsrs	r3, r2
 8001800:	6103      	str	r3, [r0, #16]
 8001802:	6f0b      	ldr	r3, [r1, #112]	; 0x70
 8001804:	f013 0f04 	tst.w	r3, #4
 8001808:	d04b      	beq.n	80018a2 <HAL_RCC_GetOscConfig+0xd6>
 800180a:	2305      	movs	r3, #5
 800180c:	6083      	str	r3, [r0, #8]
 800180e:	4b2d      	ldr	r3, [pc, #180]	; (80018c4 <HAL_RCC_GetOscConfig+0xf8>)
 8001810:	6f5b      	ldr	r3, [r3, #116]	; 0x74
 8001812:	f013 0f01 	tst.w	r3, #1
 8001816:	d04f      	beq.n	80018b8 <HAL_RCC_GetOscConfig+0xec>
 8001818:	2301      	movs	r3, #1
 800181a:	6143      	str	r3, [r0, #20]
 800181c:	4b29      	ldr	r3, [pc, #164]	; (80018c4 <HAL_RCC_GetOscConfig+0xf8>)
 800181e:	681b      	ldr	r3, [r3, #0]
 8001820:	f013 7f80 	tst.w	r3, #16777216	; 0x1000000
 8001824:	d14b      	bne.n	80018be <HAL_RCC_GetOscConfig+0xf2>
 8001826:	2301      	movs	r3, #1
 8001828:	6183      	str	r3, [r0, #24]
 800182a:	4a26      	ldr	r2, [pc, #152]	; (80018c4 <HAL_RCC_GetOscConfig+0xf8>)
 800182c:	6853      	ldr	r3, [r2, #4]
 800182e:	f403 0380 	and.w	r3, r3, #4194304	; 0x400000
 8001832:	61c3      	str	r3, [r0, #28]
 8001834:	6853      	ldr	r3, [r2, #4]
 8001836:	f003 033f 	and.w	r3, r3, #63	; 0x3f
 800183a:	6203      	str	r3, [r0, #32]
 800183c:	6851      	ldr	r1, [r2, #4]
 800183e:	f647 73c0 	movw	r3, #32704	; 0x7fc0
 8001842:	4019      	ands	r1, r3
 8001844:	fa93 f3a3 	rbit	r3, r3
 8001848:	fab3 f383 	clz	r3, r3
 800184c:	fa21 f303 	lsr.w	r3, r1, r3
 8001850:	6243      	str	r3, [r0, #36]	; 0x24
 8001852:	6853      	ldr	r3, [r2, #4]
 8001854:	f403 3340 	and.w	r3, r3, #196608	; 0x30000
 8001858:	f503 3380 	add.w	r3, r3, #65536	; 0x10000
 800185c:	005b      	lsls	r3, r3, #1
 800185e:	f44f 3140 	mov.w	r1, #196608	; 0x30000
 8001862:	fa91 f1a1 	rbit	r1, r1
 8001866:	fab1 f181 	clz	r1, r1
 800186a:	40cb      	lsrs	r3, r1
 800186c:	6283      	str	r3, [r0, #40]	; 0x28
 800186e:	6853      	ldr	r3, [r2, #4]
 8001870:	f003 6370 	and.w	r3, r3, #251658240	; 0xf000000
 8001874:	f04f 6270 	mov.w	r2, #251658240	; 0xf000000
 8001878:	fa92 f2a2 	rbit	r2, r2
 800187c:	fab2 f282 	clz	r2, r2
 8001880:	40d3      	lsrs	r3, r2
 8001882:	62c3      	str	r3, [r0, #44]	; 0x2c
 8001884:	4770      	bx	lr
 8001886:	4b0f      	ldr	r3, [pc, #60]	; (80018c4 <HAL_RCC_GetOscConfig+0xf8>)
 8001888:	681b      	ldr	r3, [r3, #0]
 800188a:	f413 3f80 	tst.w	r3, #65536	; 0x10000
 800188e:	d002      	beq.n	8001896 <HAL_RCC_GetOscConfig+0xca>
 8001890:	2301      	movs	r3, #1
 8001892:	6043      	str	r3, [r0, #4]
 8001894:	e7a3      	b.n	80017de <HAL_RCC_GetOscConfig+0x12>
 8001896:	2300      	movs	r3, #0
 8001898:	6043      	str	r3, [r0, #4]
 800189a:	e7a0      	b.n	80017de <HAL_RCC_GetOscConfig+0x12>
 800189c:	2300      	movs	r3, #0
 800189e:	60c3      	str	r3, [r0, #12]
 80018a0:	e7a4      	b.n	80017ec <HAL_RCC_GetOscConfig+0x20>
 80018a2:	4b08      	ldr	r3, [pc, #32]	; (80018c4 <HAL_RCC_GetOscConfig+0xf8>)
 80018a4:	6f1b      	ldr	r3, [r3, #112]	; 0x70
 80018a6:	f013 0f01 	tst.w	r3, #1
 80018aa:	d002      	beq.n	80018b2 <HAL_RCC_GetOscConfig+0xe6>
 80018ac:	2301      	movs	r3, #1
 80018ae:	6083      	str	r3, [r0, #8]
 80018b0:	e7ad      	b.n	800180e <HAL_RCC_GetOscConfig+0x42>
 80018b2:	2300      	movs	r3, #0
 80018b4:	6083      	str	r3, [r0, #8]
 80018b6:	e7aa      	b.n	800180e <HAL_RCC_GetOscConfig+0x42>
 80018b8:	2300      	movs	r3, #0
 80018ba:	6143      	str	r3, [r0, #20]
 80018bc:	e7ae      	b.n	800181c <HAL_RCC_GetOscConfig+0x50>
 80018be:	2302      	movs	r3, #2
 80018c0:	6183      	str	r3, [r0, #24]
 80018c2:	e7b2      	b.n	800182a <HAL_RCC_GetOscConfig+0x5e>
 80018c4:	40023800 	.word	0x40023800

080018c8 <HAL_RCC_GetClockConfig>:
 80018c8:	230f      	movs	r3, #15
 80018ca:	6003      	str	r3, [r0, #0]
 80018cc:	4b0b      	ldr	r3, [pc, #44]	; (80018fc <HAL_RCC_GetClockConfig+0x34>)
 80018ce:	689a      	ldr	r2, [r3, #8]
 80018d0:	f002 0203 	and.w	r2, r2, #3
 80018d4:	6042      	str	r2, [r0, #4]
 80018d6:	689a      	ldr	r2, [r3, #8]
 80018d8:	f002 02f0 	and.w	r2, r2, #240	; 0xf0
 80018dc:	6082      	str	r2, [r0, #8]
 80018de:	689a      	ldr	r2, [r3, #8]
 80018e0:	f402 52e0 	and.w	r2, r2, #7168	; 0x1c00
 80018e4:	60c2      	str	r2, [r0, #12]
 80018e6:	689b      	ldr	r3, [r3, #8]
 80018e8:	08db      	lsrs	r3, r3, #3
 80018ea:	f403 53e0 	and.w	r3, r3, #7168	; 0x1c00
 80018ee:	6103      	str	r3, [r0, #16]
 80018f0:	4b03      	ldr	r3, [pc, #12]	; (8001900 <HAL_RCC_GetClockConfig+0x38>)
 80018f2:	681b      	ldr	r3, [r3, #0]
 80018f4:	f003 030f 	and.w	r3, r3, #15
 80018f8:	600b      	str	r3, [r1, #0]
 80018fa:	4770      	bx	lr
 80018fc:	40023800 	.word	0x40023800
 8001900:	40023c00 	.word	0x40023c00

08001904 <HAL_RCC_CSSCallback>:
 8001904:	4770      	bx	lr

08001906 <HAL_RCC_NMI_IRQHandler>:
 8001906:	b508      	push	{r3, lr}
 8001908:	4b05      	ldr	r3, [pc, #20]	; (8001920 <HAL_RCC_NMI_IRQHandler+0x1a>)
 800190a:	68db      	ldr	r3, [r3, #12]
 800190c:	f013 0f80 	tst.w	r3, #128	; 0x80
 8001910:	d100      	bne.n	8001914 <HAL_RCC_NMI_IRQHandler+0xe>
 8001912:	bd08      	pop	{r3, pc}
 8001914:	f7ff fff6 	bl	8001904 <HAL_RCC_CSSCallback>
 8001918:	2280      	movs	r2, #128	; 0x80
 800191a:	4b02      	ldr	r3, [pc, #8]	; (8001924 <HAL_RCC_NMI_IRQHandler+0x1e>)
 800191c:	701a      	strb	r2, [r3, #0]
 800191e:	e7f8      	b.n	8001912 <HAL_RCC_NMI_IRQHandler+0xc>
 8001920:	40023800 	.word	0x40023800
 8001924:	4002380e 	.word	0x4002380e

08001928 <_exit>:
 8001928:	e7fe      	b.n	8001928 <_exit>

0800192a <abort>:
 800192a:	b508      	push	{r3, lr}
 800192c:	4802      	ldr	r0, [pc, #8]	; (8001938 <abort+0xe>)
 800192e:	f000 f87d 	bl	8001a2c <trace_puts>
 8001932:	2001      	movs	r0, #1
 8001934:	f7ff fff8 	bl	8001928 <_exit>
 8001938:	08002d2c 	.word	0x08002d2c

0800193c <_sbrk>:
 800193c:	b508      	push	{r3, lr}
 800193e:	4603      	mov	r3, r0
 8001940:	4a0c      	ldr	r2, [pc, #48]	; (8001974 <_sbrk+0x38>)
 8001942:	6812      	ldr	r2, [r2, #0]
 8001944:	b15a      	cbz	r2, 800195e <_sbrk+0x22>
 8001946:	4a0b      	ldr	r2, [pc, #44]	; (8001974 <_sbrk+0x38>)
 8001948:	6810      	ldr	r0, [r2, #0]
 800194a:	3303      	adds	r3, #3
 800194c:	f023 0303 	bic.w	r3, r3, #3
 8001950:	4403      	add	r3, r0
 8001952:	4a09      	ldr	r2, [pc, #36]	; (8001978 <_sbrk+0x3c>)
 8001954:	4293      	cmp	r3, r2
 8001956:	d806      	bhi.n	8001966 <_sbrk+0x2a>
 8001958:	4a06      	ldr	r2, [pc, #24]	; (8001974 <_sbrk+0x38>)
 800195a:	6013      	str	r3, [r2, #0]
 800195c:	bd08      	pop	{r3, pc}
 800195e:	4907      	ldr	r1, [pc, #28]	; (800197c <_sbrk+0x40>)
 8001960:	4a04      	ldr	r2, [pc, #16]	; (8001974 <_sbrk+0x38>)
 8001962:	6011      	str	r1, [r2, #0]
 8001964:	e7ef      	b.n	8001946 <_sbrk+0xa>
 8001966:	f000 fcdd 	bl	8002324 <__errno>
 800196a:	230c      	movs	r3, #12
 800196c:	6003      	str	r3, [r0, #0]
 800196e:	f04f 30ff 	mov.w	r0, #4294967295	; 0xffffffff
 8001972:	bd08      	pop	{r3, pc}
 8001974:	2000007c 	.word	0x2000007c
 8001978:	2001fc00 	.word	0x2001fc00
 800197c:	20002944 	.word	0x20002944

08001980 <__initialize_args>:
 8001980:	2301      	movs	r3, #1
 8001982:	6003      	str	r3, [r0, #0]
 8001984:	4b01      	ldr	r3, [pc, #4]	; (800198c <__initialize_args+0xc>)
 8001986:	600b      	str	r3, [r1, #0]
 8001988:	4770      	bx	lr
 800198a:	bf00      	nop
 800198c:	20000004 	.word	0x20000004

08001990 <raise>:
 8001990:	b508      	push	{r3, lr}
 8001992:	f000 fcc7 	bl	8002324 <__errno>
 8001996:	2358      	movs	r3, #88	; 0x58
 8001998:	6003      	str	r3, [r0, #0]
 800199a:	f04f 30ff 	mov.w	r0, #4294967295	; 0xffffffff
 800199e:	bd08      	pop	{r3, pc}

080019a0 <kill>:
 80019a0:	b508      	push	{r3, lr}
 80019a2:	f000 fcbf 	bl	8002324 <__errno>
 80019a6:	2358      	movs	r3, #88	; 0x58
 80019a8:	6003      	str	r3, [r0, #0]
 80019aa:	f04f 30ff 	mov.w	r0, #4294967295	; 0xffffffff
 80019ae:	bd08      	pop	{r3, pc}

080019b0 <__assert_func>:
 80019b0:	b500      	push	{lr}
 80019b2:	b083      	sub	sp, #12
 80019b4:	460c      	mov	r4, r1
 80019b6:	4619      	mov	r1, r3
 80019b8:	4613      	mov	r3, r2
 80019ba:	b152      	cbz	r2, 80019d2 <__assert_func+0x22>
 80019bc:	4a07      	ldr	r2, [pc, #28]	; (80019dc <__assert_func+0x2c>)
 80019be:	b153      	cbz	r3, 80019d6 <__assert_func+0x26>
 80019c0:	9301      	str	r3, [sp, #4]
 80019c2:	9200      	str	r2, [sp, #0]
 80019c4:	4623      	mov	r3, r4
 80019c6:	4602      	mov	r2, r0
 80019c8:	4805      	ldr	r0, [pc, #20]	; (80019e0 <__assert_func+0x30>)
 80019ca:	f000 f817 	bl	80019fc <trace_printf>
 80019ce:	f7ff ffac 	bl	800192a <abort>
 80019d2:	4a04      	ldr	r2, [pc, #16]	; (80019e4 <__assert_func+0x34>)
 80019d4:	e7f3      	b.n	80019be <__assert_func+0xe>
 80019d6:	4b03      	ldr	r3, [pc, #12]	; (80019e4 <__assert_func+0x34>)
 80019d8:	e7f2      	b.n	80019c0 <__assert_func+0x10>
 80019da:	bf00      	nop
 80019dc:	08002d40 	.word	0x08002d40
 80019e0:	08002d50 	.word	0x08002d50
 80019e4:	08002dd4 	.word	0x08002dd4

080019e8 <assert_failed>:
 80019e8:	b508      	push	{r3, lr}
 80019ea:	460a      	mov	r2, r1
 80019ec:	4601      	mov	r1, r0
 80019ee:	4802      	ldr	r0, [pc, #8]	; (80019f8 <assert_failed+0x10>)
 80019f0:	f000 f804 	bl	80019fc <trace_printf>
 80019f4:	f7ff ff99 	bl	800192a <abort>
 80019f8:	08002d80 	.word	0x08002d80

080019fc <trace_printf>:
 80019fc:	b40f      	push	{r0, r1, r2, r3}
 80019fe:	b500      	push	{lr}
 8001a00:	b083      	sub	sp, #12
 8001a02:	ab04      	add	r3, sp, #16
 8001a04:	f853 2b04 	ldr.w	r2, [r3], #4
 8001a08:	9301      	str	r3, [sp, #4]
 8001a0a:	2180      	movs	r1, #128	; 0x80
 8001a0c:	4806      	ldr	r0, [pc, #24]	; (8001a28 <trace_printf+0x2c>)
 8001a0e:	f000 fda1 	bl	8002554 <vsniprintf>
 8001a12:	2800      	cmp	r0, #0
 8001a14:	dd03      	ble.n	8001a1e <trace_printf+0x22>
 8001a16:	4601      	mov	r1, r0
 8001a18:	4803      	ldr	r0, [pc, #12]	; (8001a28 <trace_printf+0x2c>)
 8001a1a:	f000 f878 	bl	8001b0e <trace_write>
 8001a1e:	b003      	add	sp, #12
 8001a20:	f85d eb04 	ldr.w	lr, [sp], #4
 8001a24:	b004      	add	sp, #16
 8001a26:	4770      	bx	lr
 8001a28:	20000084 	.word	0x20000084

08001a2c <trace_puts>:
 8001a2c:	b510      	push	{r4, lr}
 8001a2e:	4604      	mov	r4, r0
 8001a30:	f000 fd5c 	bl	80024ec <strlen>
 8001a34:	4601      	mov	r1, r0
 8001a36:	4620      	mov	r0, r4
 8001a38:	f000 f869 	bl	8001b0e <trace_write>
 8001a3c:	2101      	movs	r1, #1
 8001a3e:	4802      	ldr	r0, [pc, #8]	; (8001a48 <trace_puts+0x1c>)
 8001a40:	f000 f865 	bl	8001b0e <trace_write>
 8001a44:	bd10      	pop	{r4, pc}
 8001a46:	bf00      	nop
 8001a48:	08002e70 	.word	0x08002e70

08001a4c <trace_putchar>:
 8001a4c:	b500      	push	{lr}
 8001a4e:	b083      	sub	sp, #12
 8001a50:	ab02      	add	r3, sp, #8
 8001a52:	f843 0d04 	str.w	r0, [r3, #-4]!
 8001a56:	2101      	movs	r1, #1
 8001a58:	4618      	mov	r0, r3
 8001a5a:	f000 f858 	bl	8001b0e <trace_write>
 8001a5e:	9801      	ldr	r0, [sp, #4]
 8001a60:	b003      	add	sp, #12
 8001a62:	f85d fb04 	ldr.w	pc, [sp], #4

08001a66 <trace_dump_args>:
 8001a66:	b570      	push	{r4, r5, r6, lr}
 8001a68:	4605      	mov	r5, r0
 8001a6a:	460e      	mov	r6, r1
 8001a6c:	4601      	mov	r1, r0
 8001a6e:	480b      	ldr	r0, [pc, #44]	; (8001a9c <trace_dump_args+0x36>)
 8001a70:	f7ff ffc4 	bl	80019fc <trace_printf>
 8001a74:	2400      	movs	r4, #0
 8001a76:	e005      	b.n	8001a84 <trace_dump_args+0x1e>
 8001a78:	f856 1024 	ldr.w	r1, [r6, r4, lsl #2]
 8001a7c:	4808      	ldr	r0, [pc, #32]	; (8001aa0 <trace_dump_args+0x3a>)
 8001a7e:	f7ff ffbd 	bl	80019fc <trace_printf>
 8001a82:	3401      	adds	r4, #1
 8001a84:	42ac      	cmp	r4, r5
 8001a86:	da05      	bge.n	8001a94 <trace_dump_args+0x2e>
 8001a88:	2c00      	cmp	r4, #0
 8001a8a:	d0f5      	beq.n	8001a78 <trace_dump_args+0x12>
 8001a8c:	4805      	ldr	r0, [pc, #20]	; (8001aa4 <trace_dump_args+0x3e>)
 8001a8e:	f7ff ffb5 	bl	80019fc <trace_printf>
 8001a92:	e7f1      	b.n	8001a78 <trace_dump_args+0x12>
 8001a94:	4804      	ldr	r0, [pc, #16]	; (8001aa8 <trace_dump_args+0x42>)
 8001a96:	f7ff ffb1 	bl	80019fc <trace_printf>
 8001a9a:	bd70      	pop	{r4, r5, r6, pc}
 8001a9c:	08002dac 	.word	0x08002dac
 8001aa0:	08002dc8 	.word	0x08002dc8
 8001aa4:	08002dc4 	.word	0x08002dc4
 8001aa8:	08002dd0 	.word	0x08002dd0

08001aac <_trace_write_semihosting_debug>:
 8001aac:	e92d 43f0 	stmdb	sp!, {r4, r5, r6, r7, r8, r9, lr}
 8001ab0:	b085      	sub	sp, #20
 8001ab2:	4604      	mov	r4, r0
 8001ab4:	460f      	mov	r7, r1
 8001ab6:	5643      	ldrsb	r3, [r0, r1]
 8001ab8:	b10b      	cbz	r3, 8001abe <_trace_write_semihosting_debug+0x12>
 8001aba:	460e      	mov	r6, r1
 8001abc:	e01e      	b.n	8001afc <_trace_write_semihosting_debug+0x50>
 8001abe:	2504      	movs	r5, #4
 8001ac0:	4628      	mov	r0, r5
 8001ac2:	4621      	mov	r1, r4
 8001ac4:	beab      	bkpt	0x00ab
 8001ac6:	4604      	mov	r4, r0
 8001ac8:	4638      	mov	r0, r7
 8001aca:	b005      	add	sp, #20
 8001acc:	e8bd 83f0 	ldmia.w	sp!, {r4, r5, r6, r7, r8, r9, pc}
 8001ad0:	f914 1b01 	ldrsb.w	r1, [r4], #1
 8001ad4:	aa04      	add	r2, sp, #16
 8001ad6:	441a      	add	r2, r3
 8001ad8:	f802 1c10 	strb.w	r1, [r2, #-16]
 8001adc:	3301      	adds	r3, #1
 8001ade:	42ab      	cmp	r3, r5
 8001ae0:	d3f6      	bcc.n	8001ad0 <_trace_write_semihosting_debug+0x24>
 8001ae2:	aa04      	add	r2, sp, #16
 8001ae4:	4413      	add	r3, r2
 8001ae6:	2200      	movs	r2, #0
 8001ae8:	f803 2c10 	strb.w	r2, [r3, #-16]
 8001aec:	46e9      	mov	r9, sp
 8001aee:	f04f 0804 	mov.w	r8, #4
 8001af2:	4640      	mov	r0, r8
 8001af4:	4649      	mov	r1, r9
 8001af6:	beab      	bkpt	0x00ab
 8001af8:	4680      	mov	r8, r0
 8001afa:	1b76      	subs	r6, r6, r5
 8001afc:	2e00      	cmp	r6, #0
 8001afe:	d0e3      	beq.n	8001ac8 <_trace_write_semihosting_debug+0x1c>
 8001b00:	4635      	mov	r5, r6
 8001b02:	2e10      	cmp	r6, #16
 8001b04:	bf28      	it	cs
 8001b06:	2510      	movcs	r5, #16
 8001b08:	2300      	movs	r3, #0
 8001b0a:	e7e8      	b.n	8001ade <_trace_write_semihosting_debug+0x32>

08001b0c <trace_initialize>:
 8001b0c:	4770      	bx	lr

08001b0e <trace_write>:
 8001b0e:	b508      	push	{r3, lr}
 8001b10:	f7ff ffcc 	bl	8001aac <_trace_write_semihosting_debug>
 8001b14:	bd08      	pop	{r3, pc}
	...

08001b18 <__initialize_hardware_early>:
 8001b18:	b508      	push	{r3, lr}
 8001b1a:	f000 f897 	bl	8001c4c <SystemInit>
 8001b1e:	4b02      	ldr	r3, [pc, #8]	; (8001b28 <__initialize_hardware_early+0x10>)
 8001b20:	4a02      	ldr	r2, [pc, #8]	; (8001b2c <__initialize_hardware_early+0x14>)
 8001b22:	609a      	str	r2, [r3, #8]
 8001b24:	bd08      	pop	{r3, pc}
 8001b26:	bf00      	nop
 8001b28:	e000ed00 	.word	0xe000ed00
 8001b2c:	08000000 	.word	0x08000000
 8001b30:	b508      	push	{r3, lr}
 8001b32:	f000 f8ab 	bl	8001c8c <SystemCoreClockUpdate>
 8001b36:	bd08      	pop	{r3, pc}

08001b38 <dumpExceptionStack>:
 8001b38:	b5f8      	push	{r3, r4, r5, r6, r7, lr}
 8001b3a:	4604      	mov	r4, r0
 8001b3c:	460d      	mov	r5, r1
 8001b3e:	4617      	mov	r7, r2
 8001b40:	461e      	mov	r6, r3
 8001b42:	4827      	ldr	r0, [pc, #156]	; (8001be0 <dumpExceptionStack+0xa8>)
 8001b44:	f7ff ff5a 	bl	80019fc <trace_printf>
 8001b48:	6821      	ldr	r1, [r4, #0]
 8001b4a:	4826      	ldr	r0, [pc, #152]	; (8001be4 <dumpExceptionStack+0xac>)
 8001b4c:	f7ff ff56 	bl	80019fc <trace_printf>
 8001b50:	6861      	ldr	r1, [r4, #4]
 8001b52:	4825      	ldr	r0, [pc, #148]	; (8001be8 <dumpExceptionStack+0xb0>)
 8001b54:	f7ff ff52 	bl	80019fc <trace_printf>
 8001b58:	68a1      	ldr	r1, [r4, #8]
 8001b5a:	4824      	ldr	r0, [pc, #144]	; (8001bec <dumpExceptionStack+0xb4>)
 8001b5c:	f7ff ff4e 	bl	80019fc <trace_printf>
 8001b60:	68e1      	ldr	r1, [r4, #12]
 8001b62:	4823      	ldr	r0, [pc, #140]	; (8001bf0 <dumpExceptionStack+0xb8>)
 8001b64:	f7ff ff4a 	bl	80019fc <trace_printf>
 8001b68:	6921      	ldr	r1, [r4, #16]
 8001b6a:	4822      	ldr	r0, [pc, #136]	; (8001bf4 <dumpExceptionStack+0xbc>)
 8001b6c:	f7ff ff46 	bl	80019fc <trace_printf>
 8001b70:	6961      	ldr	r1, [r4, #20]
 8001b72:	4821      	ldr	r0, [pc, #132]	; (8001bf8 <dumpExceptionStack+0xc0>)
 8001b74:	f7ff ff42 	bl	80019fc <trace_printf>
 8001b78:	69a1      	ldr	r1, [r4, #24]
 8001b7a:	4820      	ldr	r0, [pc, #128]	; (8001bfc <dumpExceptionStack+0xc4>)
 8001b7c:	f7ff ff3e 	bl	80019fc <trace_printf>
 8001b80:	69e1      	ldr	r1, [r4, #28]
 8001b82:	481f      	ldr	r0, [pc, #124]	; (8001c00 <dumpExceptionStack+0xc8>)
 8001b84:	f7ff ff3a 	bl	80019fc <trace_printf>
 8001b88:	481e      	ldr	r0, [pc, #120]	; (8001c04 <dumpExceptionStack+0xcc>)
 8001b8a:	f7ff ff37 	bl	80019fc <trace_printf>
 8001b8e:	4629      	mov	r1, r5
 8001b90:	481d      	ldr	r0, [pc, #116]	; (8001c08 <dumpExceptionStack+0xd0>)
 8001b92:	f7ff ff33 	bl	80019fc <trace_printf>
 8001b96:	4c1d      	ldr	r4, [pc, #116]	; (8001c0c <dumpExceptionStack+0xd4>)
 8001b98:	6ae1      	ldr	r1, [r4, #44]	; 0x2c
 8001b9a:	481d      	ldr	r0, [pc, #116]	; (8001c10 <dumpExceptionStack+0xd8>)
 8001b9c:	f7ff ff2e 	bl	80019fc <trace_printf>
 8001ba0:	6b21      	ldr	r1, [r4, #48]	; 0x30
 8001ba2:	481c      	ldr	r0, [pc, #112]	; (8001c14 <dumpExceptionStack+0xdc>)
 8001ba4:	f7ff ff2a 	bl	80019fc <trace_printf>
 8001ba8:	6be1      	ldr	r1, [r4, #60]	; 0x3c
 8001baa:	481b      	ldr	r0, [pc, #108]	; (8001c18 <dumpExceptionStack+0xe0>)
 8001bac:	f7ff ff26 	bl	80019fc <trace_printf>
 8001bb0:	f015 0f80 	tst.w	r5, #128	; 0x80
 8001bb4:	d10a      	bne.n	8001bcc <dumpExceptionStack+0x94>
 8001bb6:	f415 4f00 	tst.w	r5, #32768	; 0x8000
 8001bba:	d10c      	bne.n	8001bd6 <dumpExceptionStack+0x9e>
 8001bbc:	4817      	ldr	r0, [pc, #92]	; (8001c1c <dumpExceptionStack+0xe4>)
 8001bbe:	f7ff ff1d 	bl	80019fc <trace_printf>
 8001bc2:	9906      	ldr	r1, [sp, #24]
 8001bc4:	4816      	ldr	r0, [pc, #88]	; (8001c20 <dumpExceptionStack+0xe8>)
 8001bc6:	f7ff ff19 	bl	80019fc <trace_printf>
 8001bca:	bdf8      	pop	{r3, r4, r5, r6, r7, pc}
 8001bcc:	4639      	mov	r1, r7
 8001bce:	4815      	ldr	r0, [pc, #84]	; (8001c24 <dumpExceptionStack+0xec>)
 8001bd0:	f7ff ff14 	bl	80019fc <trace_printf>
 8001bd4:	e7ef      	b.n	8001bb6 <dumpExceptionStack+0x7e>
 8001bd6:	4631      	mov	r1, r6
 8001bd8:	4813      	ldr	r0, [pc, #76]	; (8001c28 <dumpExceptionStack+0xf0>)
 8001bda:	f7ff ff0f 	bl	80019fc <trace_printf>
 8001bde:	e7ed      	b.n	8001bbc <dumpExceptionStack+0x84>
 8001be0:	08002dd8 	.word	0x08002dd8
 8001be4:	08002de8 	.word	0x08002de8
 8001be8:	08002df8 	.word	0x08002df8
 8001bec:	08002e08 	.word	0x08002e08
 8001bf0:	08002e18 	.word	0x08002e18
 8001bf4:	08002e28 	.word	0x08002e28
 8001bf8:	08002e38 	.word	0x08002e38
 8001bfc:	08002e48 	.word	0x08002e48
 8001c00:	08002e58 	.word	0x08002e58
 8001c04:	08002e68 	.word	0x08002e68
 8001c08:	08002e74 	.word	0x08002e74
 8001c0c:	e000ed00 	.word	0xe000ed00
 8001c10:	08002e84 	.word	0x08002e84
 8001c14:	08002e94 	.word	0x08002e94
 8001c18:	08002ea4 	.word	0x08002ea4
 8001c1c:	08002ed4 	.word	0x08002ed4
 8001c20:	08002edc 	.word	0x08002edc
 8001c24:	08002eb4 	.word	0x08002eb4
 8001c28:	08002ec4 	.word	0x08002ec4

08001c2c <isSemihosting>:
 8001c2c:	6983      	ldr	r3, [r0, #24]
 8001c2e:	881a      	ldrh	r2, [r3, #0]
 8001c30:	428a      	cmp	r2, r1
 8001c32:	d001      	beq.n	8001c38 <isSemihosting+0xc>
 8001c34:	2000      	movs	r0, #0
 8001c36:	4770      	bx	lr
 8001c38:	6802      	ldr	r2, [r0, #0]
 8001c3a:	3a03      	subs	r2, #3
 8001c3c:	2a01      	cmp	r2, #1
 8001c3e:	d803      	bhi.n	8001c48 <isSemihosting+0x1c>
 8001c40:	3302      	adds	r3, #2
 8001c42:	6183      	str	r3, [r0, #24]
 8001c44:	2001      	movs	r0, #1
 8001c46:	4770      	bx	lr
 8001c48:	2000      	movs	r0, #0
 8001c4a:	4770      	bx	lr

08001c4c <SystemInit>:
 8001c4c:	4b0c      	ldr	r3, [pc, #48]	; (8001c80 <SystemInit+0x34>)
 8001c4e:	681a      	ldr	r2, [r3, #0]
 8001c50:	f042 0201 	orr.w	r2, r2, #1
 8001c54:	601a      	str	r2, [r3, #0]
 8001c56:	2100      	movs	r1, #0
 8001c58:	6099      	str	r1, [r3, #8]
 8001c5a:	681a      	ldr	r2, [r3, #0]
 8001c5c:	f022 7284 	bic.w	r2, r2, #17301504	; 0x1080000
 8001c60:	f422 3280 	bic.w	r2, r2, #65536	; 0x10000
 8001c64:	601a      	str	r2, [r3, #0]
 8001c66:	4a07      	ldr	r2, [pc, #28]	; (8001c84 <SystemInit+0x38>)
 8001c68:	605a      	str	r2, [r3, #4]
 8001c6a:	681a      	ldr	r2, [r3, #0]
 8001c6c:	f422 2280 	bic.w	r2, r2, #262144	; 0x40000
 8001c70:	601a      	str	r2, [r3, #0]
 8001c72:	60d9      	str	r1, [r3, #12]
 8001c74:	f04f 6200 	mov.w	r2, #134217728	; 0x8000000
 8001c78:	4b03      	ldr	r3, [pc, #12]	; (8001c88 <SystemInit+0x3c>)
 8001c7a:	609a      	str	r2, [r3, #8]
 8001c7c:	4770      	bx	lr
 8001c7e:	bf00      	nop
 8001c80:	40023800 	.word	0x40023800
 8001c84:	24003010 	.word	0x24003010
 8001c88:	e000ed00 	.word	0xe000ed00

08001c8c <SystemCoreClockUpdate>:
 8001c8c:	4b22      	ldr	r3, [pc, #136]	; (8001d18 <SystemCoreClockUpdate+0x8c>)
 8001c8e:	689b      	ldr	r3, [r3, #8]
 8001c90:	f003 030c 	and.w	r3, r3, #12
 8001c94:	2b04      	cmp	r3, #4
 8001c96:	d014      	beq.n	8001cc2 <SystemCoreClockUpdate+0x36>
 8001c98:	2b08      	cmp	r3, #8
 8001c9a:	d016      	beq.n	8001cca <SystemCoreClockUpdate+0x3e>
 8001c9c:	b11b      	cbz	r3, 8001ca6 <SystemCoreClockUpdate+0x1a>
 8001c9e:	4a1f      	ldr	r2, [pc, #124]	; (8001d1c <SystemCoreClockUpdate+0x90>)
 8001ca0:	4b1f      	ldr	r3, [pc, #124]	; (8001d20 <SystemCoreClockUpdate+0x94>)
 8001ca2:	601a      	str	r2, [r3, #0]
 8001ca4:	e002      	b.n	8001cac <SystemCoreClockUpdate+0x20>
 8001ca6:	4a1d      	ldr	r2, [pc, #116]	; (8001d1c <SystemCoreClockUpdate+0x90>)
 8001ca8:	4b1d      	ldr	r3, [pc, #116]	; (8001d20 <SystemCoreClockUpdate+0x94>)
 8001caa:	601a      	str	r2, [r3, #0]
 8001cac:	4b1a      	ldr	r3, [pc, #104]	; (8001d18 <SystemCoreClockUpdate+0x8c>)
 8001cae:	689b      	ldr	r3, [r3, #8]
 8001cb0:	f3c3 1303 	ubfx	r3, r3, #4, #4
 8001cb4:	4a1b      	ldr	r2, [pc, #108]	; (8001d24 <SystemCoreClockUpdate+0x98>)
 8001cb6:	5cd1      	ldrb	r1, [r2, r3]
 8001cb8:	4a19      	ldr	r2, [pc, #100]	; (8001d20 <SystemCoreClockUpdate+0x94>)
 8001cba:	6813      	ldr	r3, [r2, #0]
 8001cbc:	40cb      	lsrs	r3, r1
 8001cbe:	6013      	str	r3, [r2, #0]
 8001cc0:	4770      	bx	lr
 8001cc2:	4a19      	ldr	r2, [pc, #100]	; (8001d28 <SystemCoreClockUpdate+0x9c>)
 8001cc4:	4b16      	ldr	r3, [pc, #88]	; (8001d20 <SystemCoreClockUpdate+0x94>)
 8001cc6:	601a      	str	r2, [r3, #0]
 8001cc8:	e7f0      	b.n	8001cac <SystemCoreClockUpdate+0x20>
 8001cca:	4b13      	ldr	r3, [pc, #76]	; (8001d18 <SystemCoreClockUpdate+0x8c>)
 8001ccc:	685a      	ldr	r2, [r3, #4]
 8001cce:	685b      	ldr	r3, [r3, #4]
 8001cd0:	f003 033f 	and.w	r3, r3, #63	; 0x3f
 8001cd4:	f412 0f80 	tst.w	r2, #4194304	; 0x400000
 8001cd8:	d013      	beq.n	8001d02 <SystemCoreClockUpdate+0x76>
 8001cda:	4a13      	ldr	r2, [pc, #76]	; (8001d28 <SystemCoreClockUpdate+0x9c>)
 8001cdc:	fbb2 f2f3 	udiv	r2, r2, r3
 8001ce0:	4b0d      	ldr	r3, [pc, #52]	; (8001d18 <SystemCoreClockUpdate+0x8c>)
 8001ce2:	685b      	ldr	r3, [r3, #4]
 8001ce4:	f3c3 1388 	ubfx	r3, r3, #6, #9
 8001ce8:	fb03 f302 	mul.w	r3, r3, r2
 8001cec:	4a0a      	ldr	r2, [pc, #40]	; (8001d18 <SystemCoreClockUpdate+0x8c>)
 8001cee:	6852      	ldr	r2, [r2, #4]
 8001cf0:	f3c2 4201 	ubfx	r2, r2, #16, #2
 8001cf4:	3201      	adds	r2, #1
 8001cf6:	0052      	lsls	r2, r2, #1
 8001cf8:	fbb3 f3f2 	udiv	r3, r3, r2
 8001cfc:	4a08      	ldr	r2, [pc, #32]	; (8001d20 <SystemCoreClockUpdate+0x94>)
 8001cfe:	6013      	str	r3, [r2, #0]
 8001d00:	e7d4      	b.n	8001cac <SystemCoreClockUpdate+0x20>
 8001d02:	4a06      	ldr	r2, [pc, #24]	; (8001d1c <SystemCoreClockUpdate+0x90>)
 8001d04:	fbb2 f2f3 	udiv	r2, r2, r3
 8001d08:	4b03      	ldr	r3, [pc, #12]	; (8001d18 <SystemCoreClockUpdate+0x8c>)
 8001d0a:	685b      	ldr	r3, [r3, #4]
 8001d0c:	f3c3 1388 	ubfx	r3, r3, #6, #9
 8001d10:	fb03 f302 	mul.w	r3, r3, r2
 8001d14:	e7ea      	b.n	8001cec <SystemCoreClockUpdate+0x60>
 8001d16:	bf00      	nop
 8001d18:	40023800 	.word	0x40023800
 8001d1c:	00f42400 	.word	0x00f42400
 8001d20:	2000000c 	.word	0x2000000c
 8001d24:	08002f20 	.word	0x08002f20
 8001d28:	007a1200 	.word	0x007a1200

08001d2c <_ZN8BlinkLedC1Ejjb>:
 8001d2c:	b410      	push	{r4}
 8001d2e:	6001      	str	r1, [r0, #0]
 8001d30:	6042      	str	r2, [r0, #4]
 8001d32:	7303      	strb	r3, [r0, #12]
 8001d34:	2301      	movs	r3, #1
 8001d36:	fa03 f202 	lsl.w	r2, r3, r2
 8001d3a:	6082      	str	r2, [r0, #8]
 8001d3c:	bc10      	pop	{r4}
 8001d3e:	4770      	bx	lr

08001d40 <_ZN8BlinkLed6turnOnEv>:
 8001d40:	7b03      	ldrb	r3, [r0, #12]
 8001d42:	b93b      	cbnz	r3, 8001d54 <_ZN8BlinkLed6turnOnEv+0x14>
 8001d44:	6803      	ldr	r3, [r0, #0]
 8001d46:	f503 1380 	add.w	r3, r3, #1048576	; 0x100000
 8001d4a:	3380      	adds	r3, #128	; 0x80
 8001d4c:	029b      	lsls	r3, r3, #10
 8001d4e:	6882      	ldr	r2, [r0, #8]
 8001d50:	619a      	str	r2, [r3, #24]
 8001d52:	4770      	bx	lr
 8001d54:	6803      	ldr	r3, [r0, #0]
 8001d56:	f503 1380 	add.w	r3, r3, #1048576	; 0x100000
 8001d5a:	3380      	adds	r3, #128	; 0x80
 8001d5c:	029b      	lsls	r3, r3, #10
 8001d5e:	6841      	ldr	r1, [r0, #4]
 8001d60:	3110      	adds	r1, #16
 8001d62:	2201      	movs	r2, #1
 8001d64:	408a      	lsls	r2, r1
 8001d66:	619a      	str	r2, [r3, #24]
 8001d68:	4770      	bx	lr

08001d6a <_ZN8BlinkLed7turnOffEv>:
 8001d6a:	7b03      	ldrb	r3, [r0, #12]
 8001d6c:	b953      	cbnz	r3, 8001d84 <_ZN8BlinkLed7turnOffEv+0x1a>
 8001d6e:	6803      	ldr	r3, [r0, #0]
 8001d70:	f503 1380 	add.w	r3, r3, #1048576	; 0x100000
 8001d74:	3380      	adds	r3, #128	; 0x80
 8001d76:	029b      	lsls	r3, r3, #10
 8001d78:	6841      	ldr	r1, [r0, #4]
 8001d7a:	3110      	adds	r1, #16
 8001d7c:	2201      	movs	r2, #1
 8001d7e:	408a      	lsls	r2, r1
 8001d80:	619a      	str	r2, [r3, #24]
 8001d82:	4770      	bx	lr
 8001d84:	6803      	ldr	r3, [r0, #0]
 8001d86:	f503 1380 	add.w	r3, r3, #1048576	; 0x100000
 8001d8a:	3380      	adds	r3, #128	; 0x80
 8001d8c:	029b      	lsls	r3, r3, #10
 8001d8e:	6882      	ldr	r2, [r0, #8]
 8001d90:	619a      	str	r2, [r3, #24]
 8001d92:	4770      	bx	lr

08001d94 <_ZN8BlinkLed7powerUpEv>:
 8001d94:	b510      	push	{r4, lr}
 8001d96:	b086      	sub	sp, #24
 8001d98:	4604      	mov	r4, r0
 8001d9a:	480d      	ldr	r0, [pc, #52]	; (8001dd0 <_ZN8BlinkLed7powerUpEv+0x3c>)
 8001d9c:	6b02      	ldr	r2, [r0, #48]	; 0x30
 8001d9e:	6821      	ldr	r1, [r4, #0]
 8001da0:	2301      	movs	r3, #1
 8001da2:	fa03 f101 	lsl.w	r1, r3, r1
 8001da6:	430a      	orrs	r2, r1
 8001da8:	6302      	str	r2, [r0, #48]	; 0x30
 8001daa:	68a2      	ldr	r2, [r4, #8]
 8001dac:	9201      	str	r2, [sp, #4]
 8001dae:	9302      	str	r3, [sp, #8]
 8001db0:	2202      	movs	r2, #2
 8001db2:	9204      	str	r2, [sp, #16]
 8001db4:	9303      	str	r3, [sp, #12]
 8001db6:	6820      	ldr	r0, [r4, #0]
 8001db8:	f500 1080 	add.w	r0, r0, #1048576	; 0x100000
 8001dbc:	3080      	adds	r0, #128	; 0x80
 8001dbe:	a901      	add	r1, sp, #4
 8001dc0:	0280      	lsls	r0, r0, #10
 8001dc2:	f7fe fe07 	bl	80009d4 <HAL_GPIO_Init>
 8001dc6:	4620      	mov	r0, r4
 8001dc8:	f7ff ffcf 	bl	8001d6a <_ZN8BlinkLed7turnOffEv>
 8001dcc:	b006      	add	sp, #24
 8001dce:	bd10      	pop	{r4, pc}
 8001dd0:	40023800 	.word	0x40023800

08001dd4 <_ZN8BlinkLed6toggleEv>:
 8001dd4:	6803      	ldr	r3, [r0, #0]
 8001dd6:	f503 1380 	add.w	r3, r3, #1048576	; 0x100000
 8001dda:	3380      	adds	r3, #128	; 0x80
 8001ddc:	029b      	lsls	r3, r3, #10
 8001dde:	6919      	ldr	r1, [r3, #16]
 8001de0:	6882      	ldr	r2, [r0, #8]
 8001de2:	4211      	tst	r1, r2
 8001de4:	d103      	bne.n	8001dee <_ZN8BlinkLed6toggleEv+0x1a>
 8001de6:	6959      	ldr	r1, [r3, #20]
 8001de8:	430a      	orrs	r2, r1
 8001dea:	615a      	str	r2, [r3, #20]
 8001dec:	4770      	bx	lr
 8001dee:	6959      	ldr	r1, [r3, #20]
 8001df0:	ea21 0202 	bic.w	r2, r1, r2
 8001df4:	615a      	str	r2, [r3, #20]
 8001df6:	4770      	bx	lr

08001df8 <_ZN8BlinkLed4isOnEv>:
 8001df8:	7b03      	ldrb	r3, [r0, #12]
 8001dfa:	b95b      	cbnz	r3, 8001e14 <_ZN8BlinkLed4isOnEv+0x1c>
 8001dfc:	6803      	ldr	r3, [r0, #0]
 8001dfe:	f503 1380 	add.w	r3, r3, #1048576	; 0x100000
 8001e02:	3380      	adds	r3, #128	; 0x80
 8001e04:	029b      	lsls	r3, r3, #10
 8001e06:	691a      	ldr	r2, [r3, #16]
 8001e08:	6883      	ldr	r3, [r0, #8]
 8001e0a:	421a      	tst	r2, r3
 8001e0c:	bf14      	ite	ne
 8001e0e:	2001      	movne	r0, #1
 8001e10:	2000      	moveq	r0, #0
 8001e12:	4770      	bx	lr
 8001e14:	6803      	ldr	r3, [r0, #0]
 8001e16:	f503 1380 	add.w	r3, r3, #1048576	; 0x100000
 8001e1a:	3380      	adds	r3, #128	; 0x80
 8001e1c:	029b      	lsls	r3, r3, #10
 8001e1e:	691a      	ldr	r2, [r3, #16]
 8001e20:	6883      	ldr	r3, [r0, #8]
 8001e22:	421a      	tst	r2, r3
 8001e24:	bf0c      	ite	eq
 8001e26:	2001      	moveq	r0, #1
 8001e28:	2000      	movne	r0, #0
 8001e2a:	4770      	bx	lr

08001e2c <SystemClock_Config>:
 8001e2c:	b530      	push	{r4, r5, lr}
 8001e2e:	b095      	sub	sp, #84	; 0x54
 8001e30:	2400      	movs	r4, #0
 8001e32:	9401      	str	r4, [sp, #4]
 8001e34:	4b21      	ldr	r3, [pc, #132]	; (8001ebc <SystemClock_Config+0x90>)
 8001e36:	6c1a      	ldr	r2, [r3, #64]	; 0x40
 8001e38:	f042 5280 	orr.w	r2, r2, #268435456	; 0x10000000
 8001e3c:	641a      	str	r2, [r3, #64]	; 0x40
 8001e3e:	6c1b      	ldr	r3, [r3, #64]	; 0x40
 8001e40:	f003 5380 	and.w	r3, r3, #268435456	; 0x10000000
 8001e44:	9301      	str	r3, [sp, #4]
 8001e46:	9b01      	ldr	r3, [sp, #4]
 8001e48:	9402      	str	r4, [sp, #8]
 8001e4a:	4b1d      	ldr	r3, [pc, #116]	; (8001ec0 <SystemClock_Config+0x94>)
 8001e4c:	681a      	ldr	r2, [r3, #0]
 8001e4e:	f442 4280 	orr.w	r2, r2, #16384	; 0x4000
 8001e52:	601a      	str	r2, [r3, #0]
 8001e54:	681b      	ldr	r3, [r3, #0]
 8001e56:	f403 4380 	and.w	r3, r3, #16384	; 0x4000
 8001e5a:	9302      	str	r3, [sp, #8]
 8001e5c:	9b02      	ldr	r3, [sp, #8]
 8001e5e:	2301      	movs	r3, #1
 8001e60:	9308      	str	r3, [sp, #32]
 8001e62:	9309      	str	r3, [sp, #36]	; 0x24
 8001e64:	f44f 0380 	mov.w	r3, #4194304	; 0x400000
 8001e68:	930f      	str	r3, [sp, #60]	; 0x3c
 8001e6a:	2308      	movs	r3, #8
 8001e6c:	9310      	str	r3, [sp, #64]	; 0x40
 8001e6e:	f44f 73a8 	mov.w	r3, #336	; 0x150
 8001e72:	9311      	str	r3, [sp, #68]	; 0x44
 8001e74:	2502      	movs	r5, #2
 8001e76:	9512      	str	r5, [sp, #72]	; 0x48
 8001e78:	2307      	movs	r3, #7
 8001e7a:	9313      	str	r3, [sp, #76]	; 0x4c
 8001e7c:	950e      	str	r5, [sp, #56]	; 0x38
 8001e7e:	a808      	add	r0, sp, #32
 8001e80:	f7ff f855 	bl	8000f2e <HAL_RCC_OscConfig>
 8001e84:	230f      	movs	r3, #15
 8001e86:	9303      	str	r3, [sp, #12]
 8001e88:	9504      	str	r5, [sp, #16]
 8001e8a:	9405      	str	r4, [sp, #20]
 8001e8c:	f44f 53a0 	mov.w	r3, #5120	; 0x1400
 8001e90:	9306      	str	r3, [sp, #24]
 8001e92:	f44f 5380 	mov.w	r3, #4096	; 0x1000
 8001e96:	9307      	str	r3, [sp, #28]
 8001e98:	2105      	movs	r1, #5
 8001e9a:	a803      	add	r0, sp, #12
 8001e9c:	f7ff fb3c 	bl	8001518 <HAL_RCC_ClockConfig>
 8001ea0:	f7ff fc62 	bl	8001768 <HAL_RCC_GetHCLKFreq>
 8001ea4:	4b07      	ldr	r3, [pc, #28]	; (8001ec4 <SystemClock_Config+0x98>)
 8001ea6:	fba3 3000 	umull	r3, r0, r3, r0
 8001eaa:	0980      	lsrs	r0, r0, #6
 8001eac:	f7fe fc2a 	bl	8000704 <HAL_SYSTICK_Config>
 8001eb0:	2004      	movs	r0, #4
 8001eb2:	f7fe fd6b 	bl	800098c <HAL_SYSTICK_CLKSourceConfig>
 8001eb6:	b015      	add	sp, #84	; 0x54
 8001eb8:	bd30      	pop	{r4, r5, pc}
 8001eba:	bf00      	nop
 8001ebc:	40023800 	.word	0x40023800
 8001ec0:	40007000 	.word	0x40007000
 8001ec4:	10624dd3 	.word	0x10624dd3

08001ec8 <__initialize_hardware>:
 8001ec8:	b508      	push	{r3, lr}
 8001eca:	f7fe fad7 	bl	800047c <HAL_Init>
 8001ece:	f7ff ffad 	bl	8001e2c <SystemClock_Config>
 8001ed2:	f7ff fedb 	bl	8001c8c <SystemCoreClockUpdate>
 8001ed6:	bd08      	pop	{r3, pc}

08001ed8 <_Z41__static_initialization_and_destruction_0ii>:
 8001ed8:	2801      	cmp	r0, #1
 8001eda:	d000      	beq.n	8001ede <_Z41__static_initialization_and_destruction_0ii+0x6>
 8001edc:	4770      	bx	lr
 8001ede:	f64f 73ff 	movw	r3, #65535	; 0xffff
 8001ee2:	4299      	cmp	r1, r3
 8001ee4:	d1fa      	bne.n	8001edc <_Z41__static_initialization_and_destruction_0ii+0x4>
 8001ee6:	b510      	push	{r4, lr}
 8001ee8:	4c0e      	ldr	r4, [pc, #56]	; (8001f24 <_Z41__static_initialization_and_destruction_0ii+0x4c>)
 8001eea:	2300      	movs	r3, #0
 8001eec:	220c      	movs	r2, #12
 8001eee:	2103      	movs	r1, #3
 8001ef0:	4620      	mov	r0, r4
 8001ef2:	f7ff ff1b 	bl	8001d2c <_ZN8BlinkLedC1Ejjb>
 8001ef6:	2300      	movs	r3, #0
 8001ef8:	220d      	movs	r2, #13
 8001efa:	2103      	movs	r1, #3
 8001efc:	f104 0010 	add.w	r0, r4, #16
 8001f00:	f7ff ff14 	bl	8001d2c <_ZN8BlinkLedC1Ejjb>
 8001f04:	2300      	movs	r3, #0
 8001f06:	220e      	movs	r2, #14
 8001f08:	2103      	movs	r1, #3
 8001f0a:	f104 0020 	add.w	r0, r4, #32
 8001f0e:	f7ff ff0d 	bl	8001d2c <_ZN8BlinkLedC1Ejjb>
 8001f12:	2300      	movs	r3, #0
 8001f14:	220f      	movs	r2, #15
 8001f16:	2103      	movs	r1, #3
 8001f18:	f104 0030 	add.w	r0, r4, #48	; 0x30
 8001f1c:	f7ff ff06 	bl	8001d2c <_ZN8BlinkLedC1Ejjb>
 8001f20:	bd10      	pop	{r4, pc}
 8001f22:	bf00      	nop
 8001f24:	20000104 	.word	0x20000104

08001f28 <_Z22simple_target_functionv>:
 8001f28:	b510      	push	{r4, lr}
 8001f2a:	2400      	movs	r4, #0
 8001f2c:	f5b4 7f16 	cmp.w	r4, #600	; 0x258
 8001f30:	da03      	bge.n	8001f3a <_Z22simple_target_functionv+0x12>
 8001f32:	f000 f8c9 	bl	80020c8 <do_dhry>
 8001f36:	3401      	adds	r4, #1
 8001f38:	e7f8      	b.n	8001f2c <_Z22simple_target_functionv+0x4>
 8001f3a:	bd10      	pop	{r4, pc}

08001f3c <_Z5delayv>:
 8001f3c:	b082      	sub	sp, #8
 8001f3e:	2300      	movs	r3, #0
 8001f40:	9301      	str	r3, [sp, #4]
 8001f42:	9b01      	ldr	r3, [sp, #4]
 8001f44:	9a01      	ldr	r2, [sp, #4]
 8001f46:	4b04      	ldr	r3, [pc, #16]	; (8001f58 <_Z5delayv+0x1c>)
 8001f48:	429a      	cmp	r2, r3
 8001f4a:	d003      	beq.n	8001f54 <_Z5delayv+0x18>
 8001f4c:	9b01      	ldr	r3, [sp, #4]
 8001f4e:	3301      	adds	r3, #1
 8001f50:	9301      	str	r3, [sp, #4]
 8001f52:	e7f6      	b.n	8001f42 <_Z5delayv+0x6>
 8001f54:	b002      	add	sp, #8
 8001f56:	4770      	bx	lr
 8001f58:	01312d00 	.word	0x01312d00

08001f5c <main>:
 8001f5c:	b508      	push	{r3, lr}
 8001f5e:	4810      	ldr	r0, [pc, #64]	; (8001fa0 <main+0x44>)
 8001f60:	f7ff ff18 	bl	8001d94 <_ZN8BlinkLed7powerUpEv>
 8001f64:	4b0f      	ldr	r3, [pc, #60]	; (8001fa4 <main+0x48>)
 8001f66:	f643 627f 	movw	r2, #15999	; 0x3e7f
 8001f6a:	605a      	str	r2, [r3, #4]
 8001f6c:	21f0      	movs	r1, #240	; 0xf0
 8001f6e:	4a0e      	ldr	r2, [pc, #56]	; (8001fa8 <main+0x4c>)
 8001f70:	f882 1023 	strb.w	r1, [r2, #35]	; 0x23
 8001f74:	2200      	movs	r2, #0
 8001f76:	609a      	str	r2, [r3, #8]
 8001f78:	2207      	movs	r2, #7
 8001f7a:	601a      	str	r2, [r3, #0]
 8001f7c:	4c08      	ldr	r4, [pc, #32]	; (8001fa0 <main+0x44>)
 8001f7e:	4620      	mov	r0, r4
 8001f80:	f7ff fede 	bl	8001d40 <_ZN8BlinkLed6turnOnEv>
 8001f84:	4809      	ldr	r0, [pc, #36]	; (8001fac <main+0x50>)
 8001f86:	f7ff fd39 	bl	80019fc <trace_printf>
 8001f8a:	f7ff ffcd 	bl	8001f28 <_Z22simple_target_functionv>
 8001f8e:	4808      	ldr	r0, [pc, #32]	; (8001fb0 <main+0x54>)
 8001f90:	f7ff fd34 	bl	80019fc <trace_printf>
 8001f94:	4620      	mov	r0, r4
 8001f96:	f7ff fee8 	bl	8001d6a <_ZN8BlinkLed7turnOffEv>
 8001f9a:	f7ff ffcf 	bl	8001f3c <_Z5delayv>
 8001f9e:	e7ed      	b.n	8001f7c <main+0x20>
 8001fa0:	20000114 	.word	0x20000114
 8001fa4:	e000e010 	.word	0xe000e010
 8001fa8:	e000ed00 	.word	0xe000ed00
 8001fac:	08002f30 	.word	0x08002f30
 8001fb0:	08002f3c 	.word	0x08002f3c

08001fb4 <_GLOBAL__sub_I_blinkLeds>:
 8001fb4:	b508      	push	{r3, lr}
 8001fb6:	f64f 71ff 	movw	r1, #65535	; 0xffff
 8001fba:	2001      	movs	r0, #1
 8001fbc:	f7ff ff8c 	bl	8001ed8 <_Z41__static_initialization_and_destruction_0ii>
 8001fc0:	bd08      	pop	{r3, pc}
 8001fc2:	bf00      	nop

08001fc4 <HAL_MspInit>:
 8001fc4:	4770      	bx	lr

08001fc6 <HAL_MspDeInit>:
 8001fc6:	4770      	bx	lr

08001fc8 <HAL_PPP_MspInit>:
 8001fc8:	4770      	bx	lr

08001fca <HAL_PPP_MspDeInit>:
 8001fca:	4770      	bx	lr

08001fcc <Proc_2>:
 8001fcc:	6803      	ldr	r3, [r0, #0]
 8001fce:	330a      	adds	r3, #10
 8001fd0:	4a05      	ldr	r2, [pc, #20]	; (8001fe8 <Proc_2+0x1c>)
 8001fd2:	f992 2000 	ldrsb.w	r2, [r2]
 8001fd6:	2a41      	cmp	r2, #65	; 0x41
 8001fd8:	d104      	bne.n	8001fe4 <Proc_2+0x18>
 8001fda:	3b01      	subs	r3, #1
 8001fdc:	4a03      	ldr	r2, [pc, #12]	; (8001fec <Proc_2+0x20>)
 8001fde:	6812      	ldr	r2, [r2, #0]
 8001fe0:	1a9b      	subs	r3, r3, r2
 8001fe2:	6003      	str	r3, [r0, #0]
 8001fe4:	4770      	bx	lr
 8001fe6:	bf00      	nop
 8001fe8:	2000286c 	.word	0x2000286c
 8001fec:	20002868 	.word	0x20002868

08001ff0 <Proc_3>:
 8001ff0:	b508      	push	{r3, lr}
 8001ff2:	4b07      	ldr	r3, [pc, #28]	; (8002010 <Proc_3+0x20>)
 8001ff4:	681b      	ldr	r3, [r3, #0]
 8001ff6:	b10b      	cbz	r3, 8001ffc <Proc_3+0xc>
 8001ff8:	681b      	ldr	r3, [r3, #0]
 8001ffa:	6003      	str	r3, [r0, #0]
 8001ffc:	4b04      	ldr	r3, [pc, #16]	; (8002010 <Proc_3+0x20>)
 8001ffe:	681a      	ldr	r2, [r3, #0]
 8002000:	200a      	movs	r0, #10
 8002002:	4b04      	ldr	r3, [pc, #16]	; (8002014 <Proc_3+0x24>)
 8002004:	6819      	ldr	r1, [r3, #0]
 8002006:	320c      	adds	r2, #12
 8002008:	f000 f900 	bl	800220c <Proc_7>
 800200c:	bd08      	pop	{r3, pc}
 800200e:	bf00      	nop
 8002010:	20002870 	.word	0x20002870
 8002014:	20002868 	.word	0x20002868

08002018 <Proc_1>:
 8002018:	b5f8      	push	{r3, r4, r5, r6, r7, lr}
 800201a:	4607      	mov	r7, r0
 800201c:	6806      	ldr	r6, [r0, #0]
 800201e:	4634      	mov	r4, r6
 8002020:	4b18      	ldr	r3, [pc, #96]	; (8002084 <Proc_1+0x6c>)
 8002022:	681d      	ldr	r5, [r3, #0]
 8002024:	cd0f      	ldmia	r5!, {r0, r1, r2, r3}
 8002026:	c40f      	stmia	r4!, {r0, r1, r2, r3}
 8002028:	cd0f      	ldmia	r5!, {r0, r1, r2, r3}
 800202a:	c40f      	stmia	r4!, {r0, r1, r2, r3}
 800202c:	e895 000f 	ldmia.w	r5, {r0, r1, r2, r3}
 8002030:	e884 000f 	stmia.w	r4, {r0, r1, r2, r3}
 8002034:	2305      	movs	r3, #5
 8002036:	60fb      	str	r3, [r7, #12]
 8002038:	60f3      	str	r3, [r6, #12]
 800203a:	683b      	ldr	r3, [r7, #0]
 800203c:	6033      	str	r3, [r6, #0]
 800203e:	4630      	mov	r0, r6
 8002040:	f7ff ffd6 	bl	8001ff0 <Proc_3>
 8002044:	7933      	ldrb	r3, [r6, #4]
 8002046:	b98b      	cbnz	r3, 800206c <Proc_1+0x54>
 8002048:	2306      	movs	r3, #6
 800204a:	60f3      	str	r3, [r6, #12]
 800204c:	7a38      	ldrb	r0, [r7, #8]
 800204e:	f106 0108 	add.w	r1, r6, #8
 8002052:	f000 f941 	bl	80022d8 <Proc_6>
 8002056:	4b0b      	ldr	r3, [pc, #44]	; (8002084 <Proc_1+0x6c>)
 8002058:	681b      	ldr	r3, [r3, #0]
 800205a:	681b      	ldr	r3, [r3, #0]
 800205c:	6033      	str	r3, [r6, #0]
 800205e:	4632      	mov	r2, r6
 8002060:	f852 0f0c 	ldr.w	r0, [r2, #12]!
 8002064:	210a      	movs	r1, #10
 8002066:	f000 f8d1 	bl	800220c <Proc_7>
 800206a:	bdf8      	pop	{r3, r4, r5, r6, r7, pc}
 800206c:	463c      	mov	r4, r7
 800206e:	683d      	ldr	r5, [r7, #0]
 8002070:	cd0f      	ldmia	r5!, {r0, r1, r2, r3}
 8002072:	c40f      	stmia	r4!, {r0, r1, r2, r3}
 8002074:	cd0f      	ldmia	r5!, {r0, r1, r2, r3}
 8002076:	c40f      	stmia	r4!, {r0, r1, r2, r3}
 8002078:	e895 000f 	ldmia.w	r5, {r0, r1, r2, r3}
 800207c:	e884 000f 	stmia.w	r4, {r0, r1, r2, r3}
 8002080:	bdf8      	pop	{r3, r4, r5, r6, r7, pc}
 8002082:	bf00      	nop
 8002084:	20002870 	.word	0x20002870

08002088 <Proc_4>:
 8002088:	4b06      	ldr	r3, [pc, #24]	; (80020a4 <Proc_4+0x1c>)
 800208a:	f993 1000 	ldrsb.w	r1, [r3]
 800208e:	4a06      	ldr	r2, [pc, #24]	; (80020a8 <Proc_4+0x20>)
 8002090:	6813      	ldr	r3, [r2, #0]
 8002092:	2941      	cmp	r1, #65	; 0x41
 8002094:	bf08      	it	eq
 8002096:	f043 0301 	orreq.w	r3, r3, #1
 800209a:	6013      	str	r3, [r2, #0]
 800209c:	2242      	movs	r2, #66	; 0x42
 800209e:	4b03      	ldr	r3, [pc, #12]	; (80020ac <Proc_4+0x24>)
 80020a0:	701a      	strb	r2, [r3, #0]
 80020a2:	4770      	bx	lr
 80020a4:	2000286c 	.word	0x2000286c
 80020a8:	2000293c 	.word	0x2000293c
 80020ac:	2000286d 	.word	0x2000286d

080020b0 <Proc_5>:
 80020b0:	2241      	movs	r2, #65	; 0x41
 80020b2:	4b03      	ldr	r3, [pc, #12]	; (80020c0 <Proc_5+0x10>)
 80020b4:	701a      	strb	r2, [r3, #0]
 80020b6:	2200      	movs	r2, #0
 80020b8:	4b02      	ldr	r3, [pc, #8]	; (80020c4 <Proc_5+0x14>)
 80020ba:	601a      	str	r2, [r3, #0]
 80020bc:	4770      	bx	lr
 80020be:	bf00      	nop
 80020c0:	2000286c 	.word	0x2000286c
 80020c4:	2000293c 	.word	0x2000293c

080020c8 <do_dhry>:
 80020c8:	b570      	push	{r4, r5, r6, lr}
 80020ca:	b092      	sub	sp, #72	; 0x48
 80020cc:	2030      	movs	r0, #48	; 0x30
 80020ce:	f000 f92f 	bl	8002330 <malloc>
 80020d2:	4c43      	ldr	r4, [pc, #268]	; (80021e0 <do_dhry+0x118>)
 80020d4:	6020      	str	r0, [r4, #0]
 80020d6:	2030      	movs	r0, #48	; 0x30
 80020d8:	f000 f92a 	bl	8002330 <malloc>
 80020dc:	4b41      	ldr	r3, [pc, #260]	; (80021e4 <do_dhry+0x11c>)
 80020de:	6018      	str	r0, [r3, #0]
 80020e0:	6822      	ldr	r2, [r4, #0]
 80020e2:	6002      	str	r2, [r0, #0]
 80020e4:	6818      	ldr	r0, [r3, #0]
 80020e6:	2300      	movs	r3, #0
 80020e8:	7103      	strb	r3, [r0, #4]
 80020ea:	2302      	movs	r3, #2
 80020ec:	7203      	strb	r3, [r0, #8]
 80020ee:	2328      	movs	r3, #40	; 0x28
 80020f0:	60c3      	str	r3, [r0, #12]
 80020f2:	3010      	adds	r0, #16
 80020f4:	493c      	ldr	r1, [pc, #240]	; (80021e8 <do_dhry+0x120>)
 80020f6:	f000 f9f1 	bl	80024dc <strcpy>
 80020fa:	a808      	add	r0, sp, #32
 80020fc:	493b      	ldr	r1, [pc, #236]	; (80021ec <do_dhry+0x124>)
 80020fe:	f000 f9ed 	bl	80024dc <strcpy>
 8002102:	220a      	movs	r2, #10
 8002104:	4b3a      	ldr	r3, [pc, #232]	; (80021f0 <do_dhry+0x128>)
 8002106:	f8c3 265c 	str.w	r2, [r3, #1628]	; 0x65c
 800210a:	2501      	movs	r5, #1
 800210c:	e059      	b.n	80021c2 <do_dhry+0xfa>
 800210e:	f7ff ffcf 	bl	80020b0 <Proc_5>
 8002112:	f7ff ffb9 	bl	8002088 <Proc_4>
 8002116:	2302      	movs	r3, #2
 8002118:	9311      	str	r3, [sp, #68]	; 0x44
 800211a:	4668      	mov	r0, sp
 800211c:	4935      	ldr	r1, [pc, #212]	; (80021f4 <do_dhry+0x12c>)
 800211e:	f000 f9dd 	bl	80024dc <strcpy>
 8002122:	2301      	movs	r3, #1
 8002124:	f88d 303f 	strb.w	r3, [sp, #63]	; 0x3f
 8002128:	a808      	add	r0, sp, #32
 800212a:	4669      	mov	r1, sp
 800212c:	f000 f8ae 	bl	800228c <Func_2>
 8002130:	fab0 f080 	clz	r0, r0
 8002134:	0940      	lsrs	r0, r0, #5
 8002136:	4b30      	ldr	r3, [pc, #192]	; (80021f8 <do_dhry+0x130>)
 8002138:	6018      	str	r0, [r3, #0]
 800213a:	e00b      	b.n	8002154 <do_dhry+0x8c>
 800213c:	eb02 0282 	add.w	r2, r2, r2, lsl #2
 8002140:	3a03      	subs	r2, #3
 8002142:	9210      	str	r2, [sp, #64]	; 0x40
 8002144:	9811      	ldr	r0, [sp, #68]	; 0x44
 8002146:	2103      	movs	r1, #3
 8002148:	aa10      	add	r2, sp, #64	; 0x40
 800214a:	f000 f85f 	bl	800220c <Proc_7>
 800214e:	9b11      	ldr	r3, [sp, #68]	; 0x44
 8002150:	3301      	adds	r3, #1
 8002152:	9311      	str	r3, [sp, #68]	; 0x44
 8002154:	9a11      	ldr	r2, [sp, #68]	; 0x44
 8002156:	2a02      	cmp	r2, #2
 8002158:	ddf0      	ble.n	800213c <do_dhry+0x74>
 800215a:	4828      	ldr	r0, [pc, #160]	; (80021fc <do_dhry+0x134>)
 800215c:	4924      	ldr	r1, [pc, #144]	; (80021f0 <do_dhry+0x128>)
 800215e:	9b10      	ldr	r3, [sp, #64]	; 0x40
 8002160:	f000 f858 	bl	8002214 <Proc_8>
 8002164:	4b1f      	ldr	r3, [pc, #124]	; (80021e4 <do_dhry+0x11c>)
 8002166:	6818      	ldr	r0, [r3, #0]
 8002168:	f7ff ff56 	bl	8002018 <Proc_1>
 800216c:	2441      	movs	r4, #65	; 0x41
 800216e:	2603      	movs	r6, #3
 8002170:	e015      	b.n	800219e <do_dhry+0xd6>
 8002172:	b260      	sxtb	r0, r4
 8002174:	2143      	movs	r1, #67	; 0x43
 8002176:	f000 f87d 	bl	8002274 <Func_1>
 800217a:	f89d 303f 	ldrb.w	r3, [sp, #63]	; 0x3f
 800217e:	4298      	cmp	r0, r3
 8002180:	d10b      	bne.n	800219a <do_dhry+0xd2>
 8002182:	2000      	movs	r0, #0
 8002184:	f10d 013f 	add.w	r1, sp, #63	; 0x3f
 8002188:	f000 f8a6 	bl	80022d8 <Proc_6>
 800218c:	4668      	mov	r0, sp
 800218e:	491c      	ldr	r1, [pc, #112]	; (8002200 <do_dhry+0x138>)
 8002190:	f000 f9a4 	bl	80024dc <strcpy>
 8002194:	4b1b      	ldr	r3, [pc, #108]	; (8002204 <do_dhry+0x13c>)
 8002196:	601d      	str	r5, [r3, #0]
 8002198:	462e      	mov	r6, r5
 800219a:	3401      	adds	r4, #1
 800219c:	b2e4      	uxtb	r4, r4
 800219e:	b263      	sxtb	r3, r4
 80021a0:	4a19      	ldr	r2, [pc, #100]	; (8002208 <do_dhry+0x140>)
 80021a2:	f992 2000 	ldrsb.w	r2, [r2]
 80021a6:	4293      	cmp	r3, r2
 80021a8:	dde3      	ble.n	8002172 <do_dhry+0xaa>
 80021aa:	9b11      	ldr	r3, [sp, #68]	; 0x44
 80021ac:	fb03 f606 	mul.w	r6, r3, r6
 80021b0:	9b10      	ldr	r3, [sp, #64]	; 0x40
 80021b2:	fb96 f6f3 	sdiv	r6, r6, r3
 80021b6:	a812      	add	r0, sp, #72	; 0x48
 80021b8:	f840 6d04 	str.w	r6, [r0, #-4]!
 80021bc:	f7ff ff06 	bl	8001fcc <Proc_2>
 80021c0:	3501      	adds	r5, #1
 80021c2:	f241 3388 	movw	r3, #5000	; 0x1388
 80021c6:	429d      	cmp	r5, r3
 80021c8:	dda1      	ble.n	800210e <do_dhry+0x46>
 80021ca:	4b05      	ldr	r3, [pc, #20]	; (80021e0 <do_dhry+0x118>)
 80021cc:	6818      	ldr	r0, [r3, #0]
 80021ce:	f000 f8b7 	bl	8002340 <free>
 80021d2:	4b04      	ldr	r3, [pc, #16]	; (80021e4 <do_dhry+0x11c>)
 80021d4:	6818      	ldr	r0, [r3, #0]
 80021d6:	f000 f8b3 	bl	8002340 <free>
 80021da:	b012      	add	sp, #72	; 0x48
 80021dc:	bd70      	pop	{r4, r5, r6, pc}
 80021de:	bf00      	nop
 80021e0:	20002864 	.word	0x20002864
 80021e4:	20002870 	.word	0x20002870
 80021e8:	08002f48 	.word	0x08002f48
 80021ec:	08002f68 	.word	0x08002f68
 80021f0:	20000154 	.word	0x20000154
 80021f4:	08002f88 	.word	0x08002f88
 80021f8:	2000293c 	.word	0x2000293c
 80021fc:	20002874 	.word	0x20002874
 8002200:	08002fa8 	.word	0x08002fa8
 8002204:	20002868 	.word	0x20002868
 8002208:	2000286d 	.word	0x2000286d

0800220c <Proc_7>:
 800220c:	3002      	adds	r0, #2
 800220e:	4401      	add	r1, r0
 8002210:	6011      	str	r1, [r2, #0]
 8002212:	4770      	bx	lr

08002214 <Proc_8>:
 8002214:	b470      	push	{r4, r5, r6}
 8002216:	1d55      	adds	r5, r2, #5
 8002218:	462e      	mov	r6, r5
 800221a:	f840 3025 	str.w	r3, [r0, r5, lsl #2]
 800221e:	1d94      	adds	r4, r2, #6
 8002220:	f840 3024 	str.w	r3, [r0, r4, lsl #2]
 8002224:	f102 0323 	add.w	r3, r2, #35	; 0x23
 8002228:	f840 5023 	str.w	r5, [r0, r3, lsl #2]
 800222c:	462b      	mov	r3, r5
 800222e:	e005      	b.n	800223c <Proc_8+0x28>
 8002230:	24c8      	movs	r4, #200	; 0xc8
 8002232:	fb04 1406 	mla	r4, r4, r6, r1
 8002236:	f844 5023 	str.w	r5, [r4, r3, lsl #2]
 800223a:	3301      	adds	r3, #1
 800223c:	1d94      	adds	r4, r2, #6
 800223e:	429c      	cmp	r4, r3
 8002240:	daf6      	bge.n	8002230 <Proc_8+0x1c>
 8002242:	23c8      	movs	r3, #200	; 0xc8
 8002244:	fb03 f305 	mul.w	r3, r3, r5
 8002248:	18ce      	adds	r6, r1, r3
 800224a:	3204      	adds	r2, #4
 800224c:	f856 4022 	ldr.w	r4, [r6, r2, lsl #2]
 8002250:	3401      	adds	r4, #1
 8002252:	f846 4022 	str.w	r4, [r6, r2, lsl #2]
 8002256:	f503 637a 	add.w	r3, r3, #4000	; 0xfa0
 800225a:	4419      	add	r1, r3
 800225c:	f850 3025 	ldr.w	r3, [r0, r5, lsl #2]
 8002260:	f841 3025 	str.w	r3, [r1, r5, lsl #2]
 8002264:	2205      	movs	r2, #5
 8002266:	4b02      	ldr	r3, [pc, #8]	; (8002270 <Proc_8+0x5c>)
 8002268:	601a      	str	r2, [r3, #0]
 800226a:	bc70      	pop	{r4, r5, r6}
 800226c:	4770      	bx	lr
 800226e:	bf00      	nop
 8002270:	20002868 	.word	0x20002868

08002274 <Func_1>:
 8002274:	b240      	sxtb	r0, r0
 8002276:	b249      	sxtb	r1, r1
 8002278:	4288      	cmp	r0, r1
 800227a:	d103      	bne.n	8002284 <Func_1+0x10>
 800227c:	4b02      	ldr	r3, [pc, #8]	; (8002288 <Func_1+0x14>)
 800227e:	7018      	strb	r0, [r3, #0]
 8002280:	2001      	movs	r0, #1
 8002282:	4770      	bx	lr
 8002284:	2000      	movs	r0, #0
 8002286:	4770      	bx	lr
 8002288:	2000286c 	.word	0x2000286c

0800228c <Func_2>:
 800228c:	b570      	push	{r4, r5, r6, lr}
 800228e:	4606      	mov	r6, r0
 8002290:	460d      	mov	r5, r1
 8002292:	2402      	movs	r4, #2
 8002294:	e007      	b.n	80022a6 <Func_2+0x1a>
 8002296:	192b      	adds	r3, r5, r4
 8002298:	5730      	ldrsb	r0, [r6, r4]
 800229a:	f993 1001 	ldrsb.w	r1, [r3, #1]
 800229e:	f7ff ffe9 	bl	8002274 <Func_1>
 80022a2:	b900      	cbnz	r0, 80022a6 <Func_2+0x1a>
 80022a4:	3401      	adds	r4, #1
 80022a6:	2c02      	cmp	r4, #2
 80022a8:	ddf5      	ble.n	8002296 <Func_2+0xa>
 80022aa:	4630      	mov	r0, r6
 80022ac:	4629      	mov	r1, r5
 80022ae:	f000 f90b 	bl	80024c8 <strcmp>
 80022b2:	2800      	cmp	r0, #0
 80022b4:	dd04      	ble.n	80022c0 <Func_2+0x34>
 80022b6:	3407      	adds	r4, #7
 80022b8:	4b02      	ldr	r3, [pc, #8]	; (80022c4 <Func_2+0x38>)
 80022ba:	601c      	str	r4, [r3, #0]
 80022bc:	2001      	movs	r0, #1
 80022be:	bd70      	pop	{r4, r5, r6, pc}
 80022c0:	2000      	movs	r0, #0
 80022c2:	bd70      	pop	{r4, r5, r6, pc}
 80022c4:	20002868 	.word	0x20002868

080022c8 <Func_3>:
 80022c8:	b2c0      	uxtb	r0, r0
 80022ca:	2802      	cmp	r0, #2
 80022cc:	d101      	bne.n	80022d2 <Func_3+0xa>
 80022ce:	2001      	movs	r0, #1
 80022d0:	4770      	bx	lr
 80022d2:	2000      	movs	r0, #0
 80022d4:	4770      	bx	lr
 80022d6:	bf00      	nop

080022d8 <Proc_6>:
 80022d8:	b538      	push	{r3, r4, r5, lr}
 80022da:	460d      	mov	r5, r1
 80022dc:	b2c4      	uxtb	r4, r0
 80022de:	700c      	strb	r4, [r1, #0]
 80022e0:	4620      	mov	r0, r4
 80022e2:	f7ff fff1 	bl	80022c8 <Func_3>
 80022e6:	b908      	cbnz	r0, 80022ec <Proc_6+0x14>
 80022e8:	2303      	movs	r3, #3
 80022ea:	702b      	strb	r3, [r5, #0]
 80022ec:	2c04      	cmp	r4, #4
 80022ee:	d816      	bhi.n	800231e <Proc_6+0x46>
 80022f0:	e8df f004 	tbb	[pc, r4]
 80022f4:	15100603 	.word	0x15100603
 80022f8:	13          	.byte	0x13
 80022f9:	00          	.byte	0x00
 80022fa:	2300      	movs	r3, #0
 80022fc:	702b      	strb	r3, [r5, #0]
 80022fe:	bd38      	pop	{r3, r4, r5, pc}
 8002300:	4b07      	ldr	r3, [pc, #28]	; (8002320 <Proc_6+0x48>)
 8002302:	681b      	ldr	r3, [r3, #0]
 8002304:	2b64      	cmp	r3, #100	; 0x64
 8002306:	dd02      	ble.n	800230e <Proc_6+0x36>
 8002308:	2300      	movs	r3, #0
 800230a:	702b      	strb	r3, [r5, #0]
 800230c:	bd38      	pop	{r3, r4, r5, pc}
 800230e:	2303      	movs	r3, #3
 8002310:	702b      	strb	r3, [r5, #0]
 8002312:	bd38      	pop	{r3, r4, r5, pc}
 8002314:	2301      	movs	r3, #1
 8002316:	702b      	strb	r3, [r5, #0]
 8002318:	bd38      	pop	{r3, r4, r5, pc}
 800231a:	2302      	movs	r3, #2
 800231c:	702b      	strb	r3, [r5, #0]
 800231e:	bd38      	pop	{r3, r4, r5, pc}
 8002320:	20002868 	.word	0x20002868

08002324 <__errno>:
 8002324:	4b01      	ldr	r3, [pc, #4]	; (800232c <__errno+0x8>)
 8002326:	6818      	ldr	r0, [r3, #0]
 8002328:	4770      	bx	lr
 800232a:	bf00      	nop
 800232c:	20000010 	.word	0x20000010

08002330 <malloc>:
 8002330:	4b02      	ldr	r3, [pc, #8]	; (800233c <malloc+0xc>)
 8002332:	4601      	mov	r1, r0
 8002334:	6818      	ldr	r0, [r3, #0]
 8002336:	f000 b859 	b.w	80023ec <_malloc_r>
 800233a:	bf00      	nop
 800233c:	20000010 	.word	0x20000010

08002340 <free>:
 8002340:	4b02      	ldr	r3, [pc, #8]	; (800234c <free+0xc>)
 8002342:	4601      	mov	r1, r0
 8002344:	6818      	ldr	r0, [r3, #0]
 8002346:	f000 b803 	b.w	8002350 <_free_r>
 800234a:	bf00      	nop
 800234c:	20000010 	.word	0x20000010

08002350 <_free_r>:
 8002350:	b538      	push	{r3, r4, r5, lr}
 8002352:	4605      	mov	r5, r0
 8002354:	2900      	cmp	r1, #0
 8002356:	d045      	beq.n	80023e4 <_free_r+0x94>
 8002358:	f851 3c04 	ldr.w	r3, [r1, #-4]
 800235c:	1f0c      	subs	r4, r1, #4
 800235e:	2b00      	cmp	r3, #0
 8002360:	bfb8      	it	lt
 8002362:	18e4      	addlt	r4, r4, r3
 8002364:	f000 f904 	bl	8002570 <__malloc_lock>
 8002368:	4a1f      	ldr	r2, [pc, #124]	; (80023e8 <_free_r+0x98>)
 800236a:	6813      	ldr	r3, [r2, #0]
 800236c:	4610      	mov	r0, r2
 800236e:	b933      	cbnz	r3, 800237e <_free_r+0x2e>
 8002370:	6063      	str	r3, [r4, #4]
 8002372:	6014      	str	r4, [r2, #0]
 8002374:	4628      	mov	r0, r5
 8002376:	e8bd 4038 	ldmia.w	sp!, {r3, r4, r5, lr}
 800237a:	f000 b8fa 	b.w	8002572 <__malloc_unlock>
 800237e:	42a3      	cmp	r3, r4
 8002380:	d90c      	bls.n	800239c <_free_r+0x4c>
 8002382:	6821      	ldr	r1, [r4, #0]
 8002384:	1862      	adds	r2, r4, r1
 8002386:	4293      	cmp	r3, r2
 8002388:	bf04      	itt	eq
 800238a:	681a      	ldreq	r2, [r3, #0]
 800238c:	685b      	ldreq	r3, [r3, #4]
 800238e:	6063      	str	r3, [r4, #4]
 8002390:	bf04      	itt	eq
 8002392:	1852      	addeq	r2, r2, r1
 8002394:	6022      	streq	r2, [r4, #0]
 8002396:	6004      	str	r4, [r0, #0]
 8002398:	e7ec      	b.n	8002374 <_free_r+0x24>
 800239a:	4613      	mov	r3, r2
 800239c:	685a      	ldr	r2, [r3, #4]
 800239e:	b10a      	cbz	r2, 80023a4 <_free_r+0x54>
 80023a0:	42a2      	cmp	r2, r4
 80023a2:	d9fa      	bls.n	800239a <_free_r+0x4a>
 80023a4:	6819      	ldr	r1, [r3, #0]
 80023a6:	1858      	adds	r0, r3, r1
 80023a8:	42a0      	cmp	r0, r4
 80023aa:	d10b      	bne.n	80023c4 <_free_r+0x74>
 80023ac:	6820      	ldr	r0, [r4, #0]
 80023ae:	4401      	add	r1, r0
 80023b0:	1858      	adds	r0, r3, r1
 80023b2:	4282      	cmp	r2, r0
 80023b4:	6019      	str	r1, [r3, #0]
 80023b6:	d1dd      	bne.n	8002374 <_free_r+0x24>
 80023b8:	6810      	ldr	r0, [r2, #0]
 80023ba:	6852      	ldr	r2, [r2, #4]
 80023bc:	605a      	str	r2, [r3, #4]
 80023be:	4401      	add	r1, r0
 80023c0:	6019      	str	r1, [r3, #0]
 80023c2:	e7d7      	b.n	8002374 <_free_r+0x24>
 80023c4:	d902      	bls.n	80023cc <_free_r+0x7c>
 80023c6:	230c      	movs	r3, #12
 80023c8:	602b      	str	r3, [r5, #0]
 80023ca:	e7d3      	b.n	8002374 <_free_r+0x24>
 80023cc:	6820      	ldr	r0, [r4, #0]
 80023ce:	1821      	adds	r1, r4, r0
 80023d0:	428a      	cmp	r2, r1
 80023d2:	bf04      	itt	eq
 80023d4:	6811      	ldreq	r1, [r2, #0]
 80023d6:	6852      	ldreq	r2, [r2, #4]
 80023d8:	6062      	str	r2, [r4, #4]
 80023da:	bf04      	itt	eq
 80023dc:	1809      	addeq	r1, r1, r0
 80023de:	6021      	streq	r1, [r4, #0]
 80023e0:	605c      	str	r4, [r3, #4]
 80023e2:	e7c7      	b.n	8002374 <_free_r+0x24>
 80023e4:	bd38      	pop	{r3, r4, r5, pc}
 80023e6:	bf00      	nop
 80023e8:	20000144 	.word	0x20000144

080023ec <_malloc_r>:
 80023ec:	b570      	push	{r4, r5, r6, lr}
 80023ee:	1ccd      	adds	r5, r1, #3
 80023f0:	f025 0503 	bic.w	r5, r5, #3
 80023f4:	3508      	adds	r5, #8
 80023f6:	2d0c      	cmp	r5, #12
 80023f8:	bf38      	it	cc
 80023fa:	250c      	movcc	r5, #12
 80023fc:	2d00      	cmp	r5, #0
 80023fe:	4606      	mov	r6, r0
 8002400:	db01      	blt.n	8002406 <_malloc_r+0x1a>
 8002402:	42a9      	cmp	r1, r5
 8002404:	d903      	bls.n	800240e <_malloc_r+0x22>
 8002406:	230c      	movs	r3, #12
 8002408:	6033      	str	r3, [r6, #0]
 800240a:	2000      	movs	r0, #0
 800240c:	bd70      	pop	{r4, r5, r6, pc}
 800240e:	f000 f8af 	bl	8002570 <__malloc_lock>
 8002412:	4a23      	ldr	r2, [pc, #140]	; (80024a0 <_malloc_r+0xb4>)
 8002414:	6814      	ldr	r4, [r2, #0]
 8002416:	4621      	mov	r1, r4
 8002418:	b991      	cbnz	r1, 8002440 <_malloc_r+0x54>
 800241a:	4c22      	ldr	r4, [pc, #136]	; (80024a4 <_malloc_r+0xb8>)
 800241c:	6823      	ldr	r3, [r4, #0]
 800241e:	b91b      	cbnz	r3, 8002428 <_malloc_r+0x3c>
 8002420:	4630      	mov	r0, r6
 8002422:	f000 f841 	bl	80024a8 <_sbrk_r>
 8002426:	6020      	str	r0, [r4, #0]
 8002428:	4629      	mov	r1, r5
 800242a:	4630      	mov	r0, r6
 800242c:	f000 f83c 	bl	80024a8 <_sbrk_r>
 8002430:	1c43      	adds	r3, r0, #1
 8002432:	d126      	bne.n	8002482 <_malloc_r+0x96>
 8002434:	230c      	movs	r3, #12
 8002436:	6033      	str	r3, [r6, #0]
 8002438:	4630      	mov	r0, r6
 800243a:	f000 f89a 	bl	8002572 <__malloc_unlock>
 800243e:	e7e4      	b.n	800240a <_malloc_r+0x1e>
 8002440:	680b      	ldr	r3, [r1, #0]
 8002442:	1b5b      	subs	r3, r3, r5
 8002444:	d41a      	bmi.n	800247c <_malloc_r+0x90>
 8002446:	2b0b      	cmp	r3, #11
 8002448:	d90f      	bls.n	800246a <_malloc_r+0x7e>
 800244a:	600b      	str	r3, [r1, #0]
 800244c:	50cd      	str	r5, [r1, r3]
 800244e:	18cc      	adds	r4, r1, r3
 8002450:	4630      	mov	r0, r6
 8002452:	f000 f88e 	bl	8002572 <__malloc_unlock>
 8002456:	f104 000b 	add.w	r0, r4, #11
 800245a:	1d23      	adds	r3, r4, #4
 800245c:	f020 0007 	bic.w	r0, r0, #7
 8002460:	1ac3      	subs	r3, r0, r3
 8002462:	d01b      	beq.n	800249c <_malloc_r+0xb0>
 8002464:	425a      	negs	r2, r3
 8002466:	50e2      	str	r2, [r4, r3]
 8002468:	bd70      	pop	{r4, r5, r6, pc}
 800246a:	428c      	cmp	r4, r1
 800246c:	bf0d      	iteet	eq
 800246e:	6863      	ldreq	r3, [r4, #4]
 8002470:	684b      	ldrne	r3, [r1, #4]
 8002472:	6063      	strne	r3, [r4, #4]
 8002474:	6013      	streq	r3, [r2, #0]
 8002476:	bf18      	it	ne
 8002478:	460c      	movne	r4, r1
 800247a:	e7e9      	b.n	8002450 <_malloc_r+0x64>
 800247c:	460c      	mov	r4, r1
 800247e:	6849      	ldr	r1, [r1, #4]
 8002480:	e7ca      	b.n	8002418 <_malloc_r+0x2c>
 8002482:	1cc4      	adds	r4, r0, #3
 8002484:	f024 0403 	bic.w	r4, r4, #3
 8002488:	42a0      	cmp	r0, r4
 800248a:	d005      	beq.n	8002498 <_malloc_r+0xac>
 800248c:	1a21      	subs	r1, r4, r0
 800248e:	4630      	mov	r0, r6
 8002490:	f000 f80a 	bl	80024a8 <_sbrk_r>
 8002494:	3001      	adds	r0, #1
 8002496:	d0cd      	beq.n	8002434 <_malloc_r+0x48>
 8002498:	6025      	str	r5, [r4, #0]
 800249a:	e7d9      	b.n	8002450 <_malloc_r+0x64>
 800249c:	bd70      	pop	{r4, r5, r6, pc}
 800249e:	bf00      	nop
 80024a0:	20000144 	.word	0x20000144
 80024a4:	20000148 	.word	0x20000148

080024a8 <_sbrk_r>:
 80024a8:	b538      	push	{r3, r4, r5, lr}
 80024aa:	4c06      	ldr	r4, [pc, #24]	; (80024c4 <_sbrk_r+0x1c>)
 80024ac:	2300      	movs	r3, #0
 80024ae:	4605      	mov	r5, r0
 80024b0:	4608      	mov	r0, r1
 80024b2:	6023      	str	r3, [r4, #0]
 80024b4:	f7ff fa42 	bl	800193c <_sbrk>
 80024b8:	1c43      	adds	r3, r0, #1
 80024ba:	d102      	bne.n	80024c2 <_sbrk_r+0x1a>
 80024bc:	6823      	ldr	r3, [r4, #0]
 80024be:	b103      	cbz	r3, 80024c2 <_sbrk_r+0x1a>
 80024c0:	602b      	str	r3, [r5, #0]
 80024c2:	bd38      	pop	{r3, r4, r5, pc}
 80024c4:	20000150 	.word	0x20000150

080024c8 <strcmp>:
 80024c8:	f810 2b01 	ldrb.w	r2, [r0], #1
 80024cc:	f811 3b01 	ldrb.w	r3, [r1], #1
 80024d0:	2a01      	cmp	r2, #1
 80024d2:	bf28      	it	cs
 80024d4:	429a      	cmpcs	r2, r3
 80024d6:	d0f7      	beq.n	80024c8 <strcmp>
 80024d8:	1ad0      	subs	r0, r2, r3
 80024da:	4770      	bx	lr

080024dc <strcpy>:
 80024dc:	4603      	mov	r3, r0
 80024de:	f811 2b01 	ldrb.w	r2, [r1], #1
 80024e2:	f803 2b01 	strb.w	r2, [r3], #1
 80024e6:	2a00      	cmp	r2, #0
 80024e8:	d1f9      	bne.n	80024de <strcpy+0x2>
 80024ea:	4770      	bx	lr

080024ec <strlen>:
 80024ec:	4603      	mov	r3, r0
 80024ee:	f813 2b01 	ldrb.w	r2, [r3], #1
 80024f2:	2a00      	cmp	r2, #0
 80024f4:	d1fb      	bne.n	80024ee <strlen+0x2>
 80024f6:	1a18      	subs	r0, r3, r0
 80024f8:	3801      	subs	r0, #1
 80024fa:	4770      	bx	lr

080024fc <_vsniprintf_r>:
 80024fc:	b530      	push	{r4, r5, lr}
 80024fe:	1e14      	subs	r4, r2, #0
 8002500:	4605      	mov	r5, r0
 8002502:	b09b      	sub	sp, #108	; 0x6c
 8002504:	4618      	mov	r0, r3
 8002506:	da05      	bge.n	8002514 <_vsniprintf_r+0x18>
 8002508:	238b      	movs	r3, #139	; 0x8b
 800250a:	602b      	str	r3, [r5, #0]
 800250c:	f04f 30ff 	mov.w	r0, #4294967295	; 0xffffffff
 8002510:	b01b      	add	sp, #108	; 0x6c
 8002512:	bd30      	pop	{r4, r5, pc}
 8002514:	f44f 7302 	mov.w	r3, #520	; 0x208
 8002518:	f8ad 300c 	strh.w	r3, [sp, #12]
 800251c:	bf14      	ite	ne
 800251e:	f104 33ff 	addne.w	r3, r4, #4294967295	; 0xffffffff
 8002522:	4623      	moveq	r3, r4
 8002524:	9302      	str	r3, [sp, #8]
 8002526:	9305      	str	r3, [sp, #20]
 8002528:	f64f 73ff 	movw	r3, #65535	; 0xffff
 800252c:	9100      	str	r1, [sp, #0]
 800252e:	9104      	str	r1, [sp, #16]
 8002530:	f8ad 300e 	strh.w	r3, [sp, #14]
 8002534:	4602      	mov	r2, r0
 8002536:	9b1e      	ldr	r3, [sp, #120]	; 0x78
 8002538:	4669      	mov	r1, sp
 800253a:	4628      	mov	r0, r5
 800253c:	f000 f876 	bl	800262c <_svfiprintf_r>
 8002540:	1c43      	adds	r3, r0, #1
 8002542:	bfbc      	itt	lt
 8002544:	238b      	movlt	r3, #139	; 0x8b
 8002546:	602b      	strlt	r3, [r5, #0]
 8002548:	2c00      	cmp	r4, #0
 800254a:	d0e1      	beq.n	8002510 <_vsniprintf_r+0x14>
 800254c:	9b00      	ldr	r3, [sp, #0]
 800254e:	2200      	movs	r2, #0
 8002550:	701a      	strb	r2, [r3, #0]
 8002552:	e7dd      	b.n	8002510 <_vsniprintf_r+0x14>

08002554 <vsniprintf>:
 8002554:	b507      	push	{r0, r1, r2, lr}
 8002556:	9300      	str	r3, [sp, #0]
 8002558:	4613      	mov	r3, r2
 800255a:	460a      	mov	r2, r1
 800255c:	4601      	mov	r1, r0
 800255e:	4803      	ldr	r0, [pc, #12]	; (800256c <vsniprintf+0x18>)
 8002560:	6800      	ldr	r0, [r0, #0]
 8002562:	f7ff ffcb 	bl	80024fc <_vsniprintf_r>
 8002566:	b003      	add	sp, #12
 8002568:	f85d fb04 	ldr.w	pc, [sp], #4
 800256c:	20000010 	.word	0x20000010

08002570 <__malloc_lock>:
 8002570:	4770      	bx	lr

08002572 <__malloc_unlock>:
 8002572:	4770      	bx	lr

08002574 <__ssputs_r>:
 8002574:	e92d 47f0 	stmdb	sp!, {r4, r5, r6, r7, r8, r9, sl, lr}
 8002578:	688e      	ldr	r6, [r1, #8]
 800257a:	429e      	cmp	r6, r3
 800257c:	4682      	mov	sl, r0
 800257e:	460c      	mov	r4, r1
 8002580:	4691      	mov	r9, r2
 8002582:	4698      	mov	r8, r3
 8002584:	d835      	bhi.n	80025f2 <__ssputs_r+0x7e>
 8002586:	898a      	ldrh	r2, [r1, #12]
 8002588:	f412 6f90 	tst.w	r2, #1152	; 0x480
 800258c:	d031      	beq.n	80025f2 <__ssputs_r+0x7e>
 800258e:	6825      	ldr	r5, [r4, #0]
 8002590:	6909      	ldr	r1, [r1, #16]
 8002592:	1a6f      	subs	r7, r5, r1
 8002594:	6965      	ldr	r5, [r4, #20]
 8002596:	2302      	movs	r3, #2
 8002598:	eb05 0545 	add.w	r5, r5, r5, lsl #1
 800259c:	fb95 f5f3 	sdiv	r5, r5, r3
 80025a0:	f108 0301 	add.w	r3, r8, #1
 80025a4:	443b      	add	r3, r7
 80025a6:	429d      	cmp	r5, r3
 80025a8:	bf38      	it	cc
 80025aa:	461d      	movcc	r5, r3
 80025ac:	0553      	lsls	r3, r2, #21
 80025ae:	d531      	bpl.n	8002614 <__ssputs_r+0xa0>
 80025b0:	4629      	mov	r1, r5
 80025b2:	f7ff ff1b 	bl	80023ec <_malloc_r>
 80025b6:	4606      	mov	r6, r0
 80025b8:	b950      	cbnz	r0, 80025d0 <__ssputs_r+0x5c>
 80025ba:	230c      	movs	r3, #12
 80025bc:	f8ca 3000 	str.w	r3, [sl]
 80025c0:	89a3      	ldrh	r3, [r4, #12]
 80025c2:	f043 0340 	orr.w	r3, r3, #64	; 0x40
 80025c6:	81a3      	strh	r3, [r4, #12]
 80025c8:	f04f 30ff 	mov.w	r0, #4294967295	; 0xffffffff
 80025cc:	e8bd 87f0 	ldmia.w	sp!, {r4, r5, r6, r7, r8, r9, sl, pc}
 80025d0:	463a      	mov	r2, r7
 80025d2:	6921      	ldr	r1, [r4, #16]
 80025d4:	f000 fb04 	bl	8002be0 <memcpy>
 80025d8:	89a3      	ldrh	r3, [r4, #12]
 80025da:	f423 6390 	bic.w	r3, r3, #1152	; 0x480
 80025de:	f043 0380 	orr.w	r3, r3, #128	; 0x80
 80025e2:	81a3      	strh	r3, [r4, #12]
 80025e4:	6126      	str	r6, [r4, #16]
 80025e6:	6165      	str	r5, [r4, #20]
 80025e8:	443e      	add	r6, r7
 80025ea:	1bed      	subs	r5, r5, r7
 80025ec:	6026      	str	r6, [r4, #0]
 80025ee:	60a5      	str	r5, [r4, #8]
 80025f0:	4646      	mov	r6, r8
 80025f2:	4546      	cmp	r6, r8
 80025f4:	bf28      	it	cs
 80025f6:	4646      	movcs	r6, r8
 80025f8:	4632      	mov	r2, r6
 80025fa:	4649      	mov	r1, r9
 80025fc:	6820      	ldr	r0, [r4, #0]
 80025fe:	f000 fafa 	bl	8002bf6 <memmove>
 8002602:	68a3      	ldr	r3, [r4, #8]
 8002604:	1b9b      	subs	r3, r3, r6
 8002606:	60a3      	str	r3, [r4, #8]
 8002608:	6823      	ldr	r3, [r4, #0]
 800260a:	441e      	add	r6, r3
 800260c:	6026      	str	r6, [r4, #0]
 800260e:	2000      	movs	r0, #0
 8002610:	e8bd 87f0 	ldmia.w	sp!, {r4, r5, r6, r7, r8, r9, sl, pc}
 8002614:	462a      	mov	r2, r5
 8002616:	f000 fb08 	bl	8002c2a <_realloc_r>
 800261a:	4606      	mov	r6, r0
 800261c:	2800      	cmp	r0, #0
 800261e:	d1e1      	bne.n	80025e4 <__ssputs_r+0x70>
 8002620:	6921      	ldr	r1, [r4, #16]
 8002622:	4650      	mov	r0, sl
 8002624:	f7ff fe94 	bl	8002350 <_free_r>
 8002628:	e7c7      	b.n	80025ba <__ssputs_r+0x46>
	...

0800262c <_svfiprintf_r>:
 800262c:	e92d 4ff0 	stmdb	sp!, {r4, r5, r6, r7, r8, r9, sl, fp, lr}
 8002630:	b09d      	sub	sp, #116	; 0x74
 8002632:	4680      	mov	r8, r0
 8002634:	9303      	str	r3, [sp, #12]
 8002636:	898b      	ldrh	r3, [r1, #12]
 8002638:	061c      	lsls	r4, r3, #24
 800263a:	460d      	mov	r5, r1
 800263c:	4616      	mov	r6, r2
 800263e:	d50f      	bpl.n	8002660 <_svfiprintf_r+0x34>
 8002640:	690b      	ldr	r3, [r1, #16]
 8002642:	b96b      	cbnz	r3, 8002660 <_svfiprintf_r+0x34>
 8002644:	2140      	movs	r1, #64	; 0x40
 8002646:	f7ff fed1 	bl	80023ec <_malloc_r>
 800264a:	6028      	str	r0, [r5, #0]
 800264c:	6128      	str	r0, [r5, #16]
 800264e:	b928      	cbnz	r0, 800265c <_svfiprintf_r+0x30>
 8002650:	230c      	movs	r3, #12
 8002652:	f8c8 3000 	str.w	r3, [r8]
 8002656:	f04f 30ff 	mov.w	r0, #4294967295	; 0xffffffff
 800265a:	e0c5      	b.n	80027e8 <_svfiprintf_r+0x1bc>
 800265c:	2340      	movs	r3, #64	; 0x40
 800265e:	616b      	str	r3, [r5, #20]
 8002660:	2300      	movs	r3, #0
 8002662:	9309      	str	r3, [sp, #36]	; 0x24
 8002664:	2320      	movs	r3, #32
 8002666:	f88d 3029 	strb.w	r3, [sp, #41]	; 0x29
 800266a:	2330      	movs	r3, #48	; 0x30
 800266c:	f88d 302a 	strb.w	r3, [sp, #42]	; 0x2a
 8002670:	f04f 0b01 	mov.w	fp, #1
 8002674:	4637      	mov	r7, r6
 8002676:	463c      	mov	r4, r7
 8002678:	f814 3b01 	ldrb.w	r3, [r4], #1
 800267c:	2b00      	cmp	r3, #0
 800267e:	d13c      	bne.n	80026fa <_svfiprintf_r+0xce>
 8002680:	ebb7 0a06 	subs.w	sl, r7, r6
 8002684:	d00b      	beq.n	800269e <_svfiprintf_r+0x72>
 8002686:	4653      	mov	r3, sl
 8002688:	4632      	mov	r2, r6
 800268a:	4629      	mov	r1, r5
 800268c:	4640      	mov	r0, r8
 800268e:	f7ff ff71 	bl	8002574 <__ssputs_r>
 8002692:	3001      	adds	r0, #1
 8002694:	f000 80a3 	beq.w	80027de <_svfiprintf_r+0x1b2>
 8002698:	9b09      	ldr	r3, [sp, #36]	; 0x24
 800269a:	4453      	add	r3, sl
 800269c:	9309      	str	r3, [sp, #36]	; 0x24
 800269e:	783b      	ldrb	r3, [r7, #0]
 80026a0:	2b00      	cmp	r3, #0
 80026a2:	f000 809c 	beq.w	80027de <_svfiprintf_r+0x1b2>
 80026a6:	2300      	movs	r3, #0
 80026a8:	f04f 32ff 	mov.w	r2, #4294967295	; 0xffffffff
 80026ac:	9304      	str	r3, [sp, #16]
 80026ae:	9307      	str	r3, [sp, #28]
 80026b0:	9205      	str	r2, [sp, #20]
 80026b2:	9306      	str	r3, [sp, #24]
 80026b4:	f88d 3053 	strb.w	r3, [sp, #83]	; 0x53
 80026b8:	931a      	str	r3, [sp, #104]	; 0x68
 80026ba:	2205      	movs	r2, #5
 80026bc:	7821      	ldrb	r1, [r4, #0]
 80026be:	4850      	ldr	r0, [pc, #320]	; (8002800 <_svfiprintf_r+0x1d4>)
 80026c0:	f000 fa3e 	bl	8002b40 <memchr>
 80026c4:	1c67      	adds	r7, r4, #1
 80026c6:	9b04      	ldr	r3, [sp, #16]
 80026c8:	b9d8      	cbnz	r0, 8002702 <_svfiprintf_r+0xd6>
 80026ca:	06d9      	lsls	r1, r3, #27
 80026cc:	bf44      	itt	mi
 80026ce:	2220      	movmi	r2, #32
 80026d0:	f88d 2053 	strbmi.w	r2, [sp, #83]	; 0x53
 80026d4:	071a      	lsls	r2, r3, #28
 80026d6:	bf44      	itt	mi
 80026d8:	222b      	movmi	r2, #43	; 0x2b
 80026da:	f88d 2053 	strbmi.w	r2, [sp, #83]	; 0x53
 80026de:	7822      	ldrb	r2, [r4, #0]
 80026e0:	2a2a      	cmp	r2, #42	; 0x2a
 80026e2:	d016      	beq.n	8002712 <_svfiprintf_r+0xe6>
 80026e4:	9a07      	ldr	r2, [sp, #28]
 80026e6:	2100      	movs	r1, #0
 80026e8:	200a      	movs	r0, #10
 80026ea:	4627      	mov	r7, r4
 80026ec:	3401      	adds	r4, #1
 80026ee:	783b      	ldrb	r3, [r7, #0]
 80026f0:	3b30      	subs	r3, #48	; 0x30
 80026f2:	2b09      	cmp	r3, #9
 80026f4:	d951      	bls.n	800279a <_svfiprintf_r+0x16e>
 80026f6:	b1c9      	cbz	r1, 800272c <_svfiprintf_r+0x100>
 80026f8:	e011      	b.n	800271e <_svfiprintf_r+0xf2>
 80026fa:	2b25      	cmp	r3, #37	; 0x25
 80026fc:	d0c0      	beq.n	8002680 <_svfiprintf_r+0x54>
 80026fe:	4627      	mov	r7, r4
 8002700:	e7b9      	b.n	8002676 <_svfiprintf_r+0x4a>
 8002702:	4a3f      	ldr	r2, [pc, #252]	; (8002800 <_svfiprintf_r+0x1d4>)
 8002704:	1a80      	subs	r0, r0, r2
 8002706:	fa0b f000 	lsl.w	r0, fp, r0
 800270a:	4318      	orrs	r0, r3
 800270c:	9004      	str	r0, [sp, #16]
 800270e:	463c      	mov	r4, r7
 8002710:	e7d3      	b.n	80026ba <_svfiprintf_r+0x8e>
 8002712:	9a03      	ldr	r2, [sp, #12]
 8002714:	1d11      	adds	r1, r2, #4
 8002716:	6812      	ldr	r2, [r2, #0]
 8002718:	9103      	str	r1, [sp, #12]
 800271a:	2a00      	cmp	r2, #0
 800271c:	db01      	blt.n	8002722 <_svfiprintf_r+0xf6>
 800271e:	9207      	str	r2, [sp, #28]
 8002720:	e004      	b.n	800272c <_svfiprintf_r+0x100>
 8002722:	4252      	negs	r2, r2
 8002724:	f043 0302 	orr.w	r3, r3, #2
 8002728:	9207      	str	r2, [sp, #28]
 800272a:	9304      	str	r3, [sp, #16]
 800272c:	783b      	ldrb	r3, [r7, #0]
 800272e:	2b2e      	cmp	r3, #46	; 0x2e
 8002730:	d10e      	bne.n	8002750 <_svfiprintf_r+0x124>
 8002732:	787b      	ldrb	r3, [r7, #1]
 8002734:	2b2a      	cmp	r3, #42	; 0x2a
 8002736:	f107 0101 	add.w	r1, r7, #1
 800273a:	d132      	bne.n	80027a2 <_svfiprintf_r+0x176>
 800273c:	9b03      	ldr	r3, [sp, #12]
 800273e:	1d1a      	adds	r2, r3, #4
 8002740:	681b      	ldr	r3, [r3, #0]
 8002742:	9203      	str	r2, [sp, #12]
 8002744:	2b00      	cmp	r3, #0
 8002746:	bfb8      	it	lt
 8002748:	f04f 33ff 	movlt.w	r3, #4294967295	; 0xffffffff
 800274c:	3702      	adds	r7, #2
 800274e:	9305      	str	r3, [sp, #20]
 8002750:	4c2c      	ldr	r4, [pc, #176]	; (8002804 <_svfiprintf_r+0x1d8>)
 8002752:	7839      	ldrb	r1, [r7, #0]
 8002754:	2203      	movs	r2, #3
 8002756:	4620      	mov	r0, r4
 8002758:	f000 f9f2 	bl	8002b40 <memchr>
 800275c:	b138      	cbz	r0, 800276e <_svfiprintf_r+0x142>
 800275e:	2340      	movs	r3, #64	; 0x40
 8002760:	1b00      	subs	r0, r0, r4
 8002762:	fa03 f000 	lsl.w	r0, r3, r0
 8002766:	9b04      	ldr	r3, [sp, #16]
 8002768:	4303      	orrs	r3, r0
 800276a:	9304      	str	r3, [sp, #16]
 800276c:	3701      	adds	r7, #1
 800276e:	7839      	ldrb	r1, [r7, #0]
 8002770:	4825      	ldr	r0, [pc, #148]	; (8002808 <_svfiprintf_r+0x1dc>)
 8002772:	f88d 1028 	strb.w	r1, [sp, #40]	; 0x28
 8002776:	2206      	movs	r2, #6
 8002778:	1c7e      	adds	r6, r7, #1
 800277a:	f000 f9e1 	bl	8002b40 <memchr>
 800277e:	2800      	cmp	r0, #0
 8002780:	d035      	beq.n	80027ee <_svfiprintf_r+0x1c2>
 8002782:	4b22      	ldr	r3, [pc, #136]	; (800280c <_svfiprintf_r+0x1e0>)
 8002784:	b9fb      	cbnz	r3, 80027c6 <_svfiprintf_r+0x19a>
 8002786:	9b03      	ldr	r3, [sp, #12]
 8002788:	3307      	adds	r3, #7
 800278a:	f023 0307 	bic.w	r3, r3, #7
 800278e:	3308      	adds	r3, #8
 8002790:	9303      	str	r3, [sp, #12]
 8002792:	9b09      	ldr	r3, [sp, #36]	; 0x24
 8002794:	444b      	add	r3, r9
 8002796:	9309      	str	r3, [sp, #36]	; 0x24
 8002798:	e76c      	b.n	8002674 <_svfiprintf_r+0x48>
 800279a:	fb00 3202 	mla	r2, r0, r2, r3
 800279e:	2101      	movs	r1, #1
 80027a0:	e7a3      	b.n	80026ea <_svfiprintf_r+0xbe>
 80027a2:	2300      	movs	r3, #0
 80027a4:	9305      	str	r3, [sp, #20]
 80027a6:	4618      	mov	r0, r3
 80027a8:	240a      	movs	r4, #10
 80027aa:	460f      	mov	r7, r1
 80027ac:	3101      	adds	r1, #1
 80027ae:	783a      	ldrb	r2, [r7, #0]
 80027b0:	3a30      	subs	r2, #48	; 0x30
 80027b2:	2a09      	cmp	r2, #9
 80027b4:	d903      	bls.n	80027be <_svfiprintf_r+0x192>
 80027b6:	2b00      	cmp	r3, #0
 80027b8:	d0ca      	beq.n	8002750 <_svfiprintf_r+0x124>
 80027ba:	9005      	str	r0, [sp, #20]
 80027bc:	e7c8      	b.n	8002750 <_svfiprintf_r+0x124>
 80027be:	fb04 2000 	mla	r0, r4, r0, r2
 80027c2:	2301      	movs	r3, #1
 80027c4:	e7f1      	b.n	80027aa <_svfiprintf_r+0x17e>
 80027c6:	ab03      	add	r3, sp, #12
 80027c8:	9300      	str	r3, [sp, #0]
 80027ca:	462a      	mov	r2, r5
 80027cc:	4b10      	ldr	r3, [pc, #64]	; (8002810 <_svfiprintf_r+0x1e4>)
 80027ce:	a904      	add	r1, sp, #16
 80027d0:	4640      	mov	r0, r8
 80027d2:	f3af 8000 	nop.w
 80027d6:	f1b0 3fff 	cmp.w	r0, #4294967295	; 0xffffffff
 80027da:	4681      	mov	r9, r0
 80027dc:	d1d9      	bne.n	8002792 <_svfiprintf_r+0x166>
 80027de:	89ab      	ldrh	r3, [r5, #12]
 80027e0:	065b      	lsls	r3, r3, #25
 80027e2:	f53f af38 	bmi.w	8002656 <_svfiprintf_r+0x2a>
 80027e6:	9809      	ldr	r0, [sp, #36]	; 0x24
 80027e8:	b01d      	add	sp, #116	; 0x74
 80027ea:	e8bd 8ff0 	ldmia.w	sp!, {r4, r5, r6, r7, r8, r9, sl, fp, pc}
 80027ee:	ab03      	add	r3, sp, #12
 80027f0:	9300      	str	r3, [sp, #0]
 80027f2:	462a      	mov	r2, r5
 80027f4:	4b06      	ldr	r3, [pc, #24]	; (8002810 <_svfiprintf_r+0x1e4>)
 80027f6:	a904      	add	r1, sp, #16
 80027f8:	4640      	mov	r0, r8
 80027fa:	f000 f881 	bl	8002900 <_printf_i>
 80027fe:	e7ea      	b.n	80027d6 <_svfiprintf_r+0x1aa>
 8002800:	08002fc8 	.word	0x08002fc8
 8002804:	08002fce 	.word	0x08002fce
 8002808:	08002fd2 	.word	0x08002fd2
 800280c:	00000000 	.word	0x00000000
 8002810:	08002575 	.word	0x08002575

08002814 <_printf_common>:
 8002814:	e92d 47f0 	stmdb	sp!, {r4, r5, r6, r7, r8, r9, sl, lr}
 8002818:	4691      	mov	r9, r2
 800281a:	461f      	mov	r7, r3
 800281c:	688a      	ldr	r2, [r1, #8]
 800281e:	690b      	ldr	r3, [r1, #16]
 8002820:	f8dd 8020 	ldr.w	r8, [sp, #32]
 8002824:	4293      	cmp	r3, r2
 8002826:	bfb8      	it	lt
 8002828:	4613      	movlt	r3, r2
 800282a:	f8c9 3000 	str.w	r3, [r9]
 800282e:	f891 2043 	ldrb.w	r2, [r1, #67]	; 0x43
 8002832:	4606      	mov	r6, r0
 8002834:	460c      	mov	r4, r1
 8002836:	b112      	cbz	r2, 800283e <_printf_common+0x2a>
 8002838:	3301      	adds	r3, #1
 800283a:	f8c9 3000 	str.w	r3, [r9]
 800283e:	6823      	ldr	r3, [r4, #0]
 8002840:	0699      	lsls	r1, r3, #26
 8002842:	bf42      	ittt	mi
 8002844:	f8d9 3000 	ldrmi.w	r3, [r9]
 8002848:	3302      	addmi	r3, #2
 800284a:	f8c9 3000 	strmi.w	r3, [r9]
 800284e:	6825      	ldr	r5, [r4, #0]
 8002850:	f015 0506 	ands.w	r5, r5, #6
 8002854:	d107      	bne.n	8002866 <_printf_common+0x52>
 8002856:	f104 0a19 	add.w	sl, r4, #25
 800285a:	68e3      	ldr	r3, [r4, #12]
 800285c:	f8d9 2000 	ldr.w	r2, [r9]
 8002860:	1a9b      	subs	r3, r3, r2
 8002862:	429d      	cmp	r5, r3
 8002864:	db29      	blt.n	80028ba <_printf_common+0xa6>
 8002866:	f894 3043 	ldrb.w	r3, [r4, #67]	; 0x43
 800286a:	6822      	ldr	r2, [r4, #0]
 800286c:	3300      	adds	r3, #0
 800286e:	bf18      	it	ne
 8002870:	2301      	movne	r3, #1
 8002872:	0692      	lsls	r2, r2, #26
 8002874:	d42e      	bmi.n	80028d4 <_printf_common+0xc0>
 8002876:	f104 0243 	add.w	r2, r4, #67	; 0x43
 800287a:	4639      	mov	r1, r7
 800287c:	4630      	mov	r0, r6
 800287e:	47c0      	blx	r8
 8002880:	3001      	adds	r0, #1
 8002882:	d021      	beq.n	80028c8 <_printf_common+0xb4>
 8002884:	6823      	ldr	r3, [r4, #0]
 8002886:	68e5      	ldr	r5, [r4, #12]
 8002888:	f8d9 2000 	ldr.w	r2, [r9]
 800288c:	f003 0306 	and.w	r3, r3, #6
 8002890:	2b04      	cmp	r3, #4
 8002892:	bf08      	it	eq
 8002894:	1aad      	subeq	r5, r5, r2
 8002896:	68a3      	ldr	r3, [r4, #8]
 8002898:	6922      	ldr	r2, [r4, #16]
 800289a:	bf0c      	ite	eq
 800289c:	ea25 75e5 	biceq.w	r5, r5, r5, asr #31
 80028a0:	2500      	movne	r5, #0
 80028a2:	4293      	cmp	r3, r2
 80028a4:	bfc4      	itt	gt
 80028a6:	1a9b      	subgt	r3, r3, r2
 80028a8:	18ed      	addgt	r5, r5, r3
 80028aa:	f04f 0900 	mov.w	r9, #0
 80028ae:	341a      	adds	r4, #26
 80028b0:	454d      	cmp	r5, r9
 80028b2:	d11b      	bne.n	80028ec <_printf_common+0xd8>
 80028b4:	2000      	movs	r0, #0
 80028b6:	e8bd 87f0 	ldmia.w	sp!, {r4, r5, r6, r7, r8, r9, sl, pc}
 80028ba:	2301      	movs	r3, #1
 80028bc:	4652      	mov	r2, sl
 80028be:	4639      	mov	r1, r7
 80028c0:	4630      	mov	r0, r6
 80028c2:	47c0      	blx	r8
 80028c4:	3001      	adds	r0, #1
 80028c6:	d103      	bne.n	80028d0 <_printf_common+0xbc>
 80028c8:	f04f 30ff 	mov.w	r0, #4294967295	; 0xffffffff
 80028cc:	e8bd 87f0 	ldmia.w	sp!, {r4, r5, r6, r7, r8, r9, sl, pc}
 80028d0:	3501      	adds	r5, #1
 80028d2:	e7c2      	b.n	800285a <_printf_common+0x46>
 80028d4:	18e1      	adds	r1, r4, r3
 80028d6:	1c5a      	adds	r2, r3, #1
 80028d8:	2030      	movs	r0, #48	; 0x30
 80028da:	f881 0043 	strb.w	r0, [r1, #67]	; 0x43
 80028de:	4422      	add	r2, r4
 80028e0:	f894 1045 	ldrb.w	r1, [r4, #69]	; 0x45
 80028e4:	f882 1043 	strb.w	r1, [r2, #67]	; 0x43
 80028e8:	3302      	adds	r3, #2
 80028ea:	e7c4      	b.n	8002876 <_printf_common+0x62>
 80028ec:	2301      	movs	r3, #1
 80028ee:	4622      	mov	r2, r4
 80028f0:	4639      	mov	r1, r7
 80028f2:	4630      	mov	r0, r6
 80028f4:	47c0      	blx	r8
 80028f6:	3001      	adds	r0, #1
 80028f8:	d0e6      	beq.n	80028c8 <_printf_common+0xb4>
 80028fa:	f109 0901 	add.w	r9, r9, #1
 80028fe:	e7d7      	b.n	80028b0 <_printf_common+0x9c>

08002900 <_printf_i>:
 8002900:	e92d 43f0 	stmdb	sp!, {r4, r5, r6, r7, r8, r9, lr}
 8002904:	4617      	mov	r7, r2
 8002906:	7e0a      	ldrb	r2, [r1, #24]
 8002908:	b085      	sub	sp, #20
 800290a:	2a6e      	cmp	r2, #110	; 0x6e
 800290c:	4698      	mov	r8, r3
 800290e:	4606      	mov	r6, r0
 8002910:	460c      	mov	r4, r1
 8002912:	9b0c      	ldr	r3, [sp, #48]	; 0x30
 8002914:	f101 0e43 	add.w	lr, r1, #67	; 0x43
 8002918:	f000 80bc 	beq.w	8002a94 <_printf_i+0x194>
 800291c:	d81a      	bhi.n	8002954 <_printf_i+0x54>
 800291e:	2a63      	cmp	r2, #99	; 0x63
 8002920:	d02e      	beq.n	8002980 <_printf_i+0x80>
 8002922:	d80a      	bhi.n	800293a <_printf_i+0x3a>
 8002924:	2a00      	cmp	r2, #0
 8002926:	f000 80c8 	beq.w	8002aba <_printf_i+0x1ba>
 800292a:	2a58      	cmp	r2, #88	; 0x58
 800292c:	f000 808a 	beq.w	8002a44 <_printf_i+0x144>
 8002930:	f104 0542 	add.w	r5, r4, #66	; 0x42
 8002934:	f884 2042 	strb.w	r2, [r4, #66]	; 0x42
 8002938:	e02a      	b.n	8002990 <_printf_i+0x90>
 800293a:	2a64      	cmp	r2, #100	; 0x64
 800293c:	d001      	beq.n	8002942 <_printf_i+0x42>
 800293e:	2a69      	cmp	r2, #105	; 0x69
 8002940:	d1f6      	bne.n	8002930 <_printf_i+0x30>
 8002942:	6821      	ldr	r1, [r4, #0]
 8002944:	681a      	ldr	r2, [r3, #0]
 8002946:	f011 0f80 	tst.w	r1, #128	; 0x80
 800294a:	d023      	beq.n	8002994 <_printf_i+0x94>
 800294c:	1d11      	adds	r1, r2, #4
 800294e:	6019      	str	r1, [r3, #0]
 8002950:	6813      	ldr	r3, [r2, #0]
 8002952:	e027      	b.n	80029a4 <_printf_i+0xa4>
 8002954:	2a73      	cmp	r2, #115	; 0x73
 8002956:	f000 80b4 	beq.w	8002ac2 <_printf_i+0x1c2>
 800295a:	d808      	bhi.n	800296e <_printf_i+0x6e>
 800295c:	2a6f      	cmp	r2, #111	; 0x6f
 800295e:	d02a      	beq.n	80029b6 <_printf_i+0xb6>
 8002960:	2a70      	cmp	r2, #112	; 0x70
 8002962:	d1e5      	bne.n	8002930 <_printf_i+0x30>
 8002964:	680a      	ldr	r2, [r1, #0]
 8002966:	f042 0220 	orr.w	r2, r2, #32
 800296a:	600a      	str	r2, [r1, #0]
 800296c:	e003      	b.n	8002976 <_printf_i+0x76>
 800296e:	2a75      	cmp	r2, #117	; 0x75
 8002970:	d021      	beq.n	80029b6 <_printf_i+0xb6>
 8002972:	2a78      	cmp	r2, #120	; 0x78
 8002974:	d1dc      	bne.n	8002930 <_printf_i+0x30>
 8002976:	2278      	movs	r2, #120	; 0x78
 8002978:	f884 2045 	strb.w	r2, [r4, #69]	; 0x45
 800297c:	496e      	ldr	r1, [pc, #440]	; (8002b38 <_printf_i+0x238>)
 800297e:	e064      	b.n	8002a4a <_printf_i+0x14a>
 8002980:	681a      	ldr	r2, [r3, #0]
 8002982:	f101 0542 	add.w	r5, r1, #66	; 0x42
 8002986:	1d11      	adds	r1, r2, #4
 8002988:	6019      	str	r1, [r3, #0]
 800298a:	6813      	ldr	r3, [r2, #0]
 800298c:	f884 3042 	strb.w	r3, [r4, #66]	; 0x42
 8002990:	2301      	movs	r3, #1
 8002992:	e0a3      	b.n	8002adc <_printf_i+0x1dc>
 8002994:	f011 0f40 	tst.w	r1, #64	; 0x40
 8002998:	f102 0104 	add.w	r1, r2, #4
 800299c:	6019      	str	r1, [r3, #0]
 800299e:	d0d7      	beq.n	8002950 <_printf_i+0x50>
 80029a0:	f9b2 3000 	ldrsh.w	r3, [r2]
 80029a4:	2b00      	cmp	r3, #0
 80029a6:	da03      	bge.n	80029b0 <_printf_i+0xb0>
 80029a8:	222d      	movs	r2, #45	; 0x2d
 80029aa:	425b      	negs	r3, r3
 80029ac:	f884 2043 	strb.w	r2, [r4, #67]	; 0x43
 80029b0:	4962      	ldr	r1, [pc, #392]	; (8002b3c <_printf_i+0x23c>)
 80029b2:	220a      	movs	r2, #10
 80029b4:	e017      	b.n	80029e6 <_printf_i+0xe6>
 80029b6:	6820      	ldr	r0, [r4, #0]
 80029b8:	6819      	ldr	r1, [r3, #0]
 80029ba:	f010 0f80 	tst.w	r0, #128	; 0x80
 80029be:	d003      	beq.n	80029c8 <_printf_i+0xc8>
 80029c0:	1d08      	adds	r0, r1, #4
 80029c2:	6018      	str	r0, [r3, #0]
 80029c4:	680b      	ldr	r3, [r1, #0]
 80029c6:	e006      	b.n	80029d6 <_printf_i+0xd6>
 80029c8:	f010 0f40 	tst.w	r0, #64	; 0x40
 80029cc:	f101 0004 	add.w	r0, r1, #4
 80029d0:	6018      	str	r0, [r3, #0]
 80029d2:	d0f7      	beq.n	80029c4 <_printf_i+0xc4>
 80029d4:	880b      	ldrh	r3, [r1, #0]
 80029d6:	4959      	ldr	r1, [pc, #356]	; (8002b3c <_printf_i+0x23c>)
 80029d8:	2a6f      	cmp	r2, #111	; 0x6f
 80029da:	bf14      	ite	ne
 80029dc:	220a      	movne	r2, #10
 80029de:	2208      	moveq	r2, #8
 80029e0:	2000      	movs	r0, #0
 80029e2:	f884 0043 	strb.w	r0, [r4, #67]	; 0x43
 80029e6:	6865      	ldr	r5, [r4, #4]
 80029e8:	60a5      	str	r5, [r4, #8]
 80029ea:	2d00      	cmp	r5, #0
 80029ec:	f2c0 809c 	blt.w	8002b28 <_printf_i+0x228>
 80029f0:	6820      	ldr	r0, [r4, #0]
 80029f2:	f020 0004 	bic.w	r0, r0, #4
 80029f6:	6020      	str	r0, [r4, #0]
 80029f8:	2b00      	cmp	r3, #0
 80029fa:	d13f      	bne.n	8002a7c <_printf_i+0x17c>
 80029fc:	2d00      	cmp	r5, #0
 80029fe:	f040 8095 	bne.w	8002b2c <_printf_i+0x22c>
 8002a02:	4675      	mov	r5, lr
 8002a04:	2a08      	cmp	r2, #8
 8002a06:	d10b      	bne.n	8002a20 <_printf_i+0x120>
 8002a08:	6823      	ldr	r3, [r4, #0]
 8002a0a:	07da      	lsls	r2, r3, #31
 8002a0c:	d508      	bpl.n	8002a20 <_printf_i+0x120>
 8002a0e:	6923      	ldr	r3, [r4, #16]
 8002a10:	6862      	ldr	r2, [r4, #4]
 8002a12:	429a      	cmp	r2, r3
 8002a14:	bfde      	ittt	le
 8002a16:	2330      	movle	r3, #48	; 0x30
 8002a18:	f805 3c01 	strble.w	r3, [r5, #-1]
 8002a1c:	f105 35ff 	addle.w	r5, r5, #4294967295	; 0xffffffff
 8002a20:	ebae 0305 	sub.w	r3, lr, r5
 8002a24:	6123      	str	r3, [r4, #16]
 8002a26:	f8cd 8000 	str.w	r8, [sp]
 8002a2a:	463b      	mov	r3, r7
 8002a2c:	aa03      	add	r2, sp, #12
 8002a2e:	4621      	mov	r1, r4
 8002a30:	4630      	mov	r0, r6
 8002a32:	f7ff feef 	bl	8002814 <_printf_common>
 8002a36:	3001      	adds	r0, #1
 8002a38:	d155      	bne.n	8002ae6 <_printf_i+0x1e6>
 8002a3a:	f04f 30ff 	mov.w	r0, #4294967295	; 0xffffffff
 8002a3e:	b005      	add	sp, #20
 8002a40:	e8bd 83f0 	ldmia.w	sp!, {r4, r5, r6, r7, r8, r9, pc}
 8002a44:	f881 2045 	strb.w	r2, [r1, #69]	; 0x45
 8002a48:	493c      	ldr	r1, [pc, #240]	; (8002b3c <_printf_i+0x23c>)
 8002a4a:	6822      	ldr	r2, [r4, #0]
 8002a4c:	6818      	ldr	r0, [r3, #0]
 8002a4e:	f012 0f80 	tst.w	r2, #128	; 0x80
 8002a52:	f100 0504 	add.w	r5, r0, #4
 8002a56:	601d      	str	r5, [r3, #0]
 8002a58:	d001      	beq.n	8002a5e <_printf_i+0x15e>
 8002a5a:	6803      	ldr	r3, [r0, #0]
 8002a5c:	e002      	b.n	8002a64 <_printf_i+0x164>
 8002a5e:	0655      	lsls	r5, r2, #25
 8002a60:	d5fb      	bpl.n	8002a5a <_printf_i+0x15a>
 8002a62:	8803      	ldrh	r3, [r0, #0]
 8002a64:	07d0      	lsls	r0, r2, #31
 8002a66:	bf44      	itt	mi
 8002a68:	f042 0220 	orrmi.w	r2, r2, #32
 8002a6c:	6022      	strmi	r2, [r4, #0]
 8002a6e:	b91b      	cbnz	r3, 8002a78 <_printf_i+0x178>
 8002a70:	6822      	ldr	r2, [r4, #0]
 8002a72:	f022 0220 	bic.w	r2, r2, #32
 8002a76:	6022      	str	r2, [r4, #0]
 8002a78:	2210      	movs	r2, #16
 8002a7a:	e7b1      	b.n	80029e0 <_printf_i+0xe0>
 8002a7c:	4675      	mov	r5, lr
 8002a7e:	fbb3 f0f2 	udiv	r0, r3, r2
 8002a82:	fb02 3310 	mls	r3, r2, r0, r3
 8002a86:	5ccb      	ldrb	r3, [r1, r3]
 8002a88:	f805 3d01 	strb.w	r3, [r5, #-1]!
 8002a8c:	4603      	mov	r3, r0
 8002a8e:	2800      	cmp	r0, #0
 8002a90:	d1f5      	bne.n	8002a7e <_printf_i+0x17e>
 8002a92:	e7b7      	b.n	8002a04 <_printf_i+0x104>
 8002a94:	6808      	ldr	r0, [r1, #0]
 8002a96:	681a      	ldr	r2, [r3, #0]
 8002a98:	6949      	ldr	r1, [r1, #20]
 8002a9a:	f010 0f80 	tst.w	r0, #128	; 0x80
 8002a9e:	d004      	beq.n	8002aaa <_printf_i+0x1aa>
 8002aa0:	1d10      	adds	r0, r2, #4
 8002aa2:	6018      	str	r0, [r3, #0]
 8002aa4:	6813      	ldr	r3, [r2, #0]
 8002aa6:	6019      	str	r1, [r3, #0]
 8002aa8:	e007      	b.n	8002aba <_printf_i+0x1ba>
 8002aaa:	f010 0f40 	tst.w	r0, #64	; 0x40
 8002aae:	f102 0004 	add.w	r0, r2, #4
 8002ab2:	6018      	str	r0, [r3, #0]
 8002ab4:	6813      	ldr	r3, [r2, #0]
 8002ab6:	d0f6      	beq.n	8002aa6 <_printf_i+0x1a6>
 8002ab8:	8019      	strh	r1, [r3, #0]
 8002aba:	2300      	movs	r3, #0
 8002abc:	6123      	str	r3, [r4, #16]
 8002abe:	4675      	mov	r5, lr
 8002ac0:	e7b1      	b.n	8002a26 <_printf_i+0x126>
 8002ac2:	681a      	ldr	r2, [r3, #0]
 8002ac4:	1d11      	adds	r1, r2, #4
 8002ac6:	6019      	str	r1, [r3, #0]
 8002ac8:	6815      	ldr	r5, [r2, #0]
 8002aca:	6862      	ldr	r2, [r4, #4]
 8002acc:	2100      	movs	r1, #0
 8002ace:	4628      	mov	r0, r5
 8002ad0:	f000 f836 	bl	8002b40 <memchr>
 8002ad4:	b108      	cbz	r0, 8002ada <_printf_i+0x1da>
 8002ad6:	1b40      	subs	r0, r0, r5
 8002ad8:	6060      	str	r0, [r4, #4]
 8002ada:	6863      	ldr	r3, [r4, #4]
 8002adc:	6123      	str	r3, [r4, #16]
 8002ade:	2300      	movs	r3, #0
 8002ae0:	f884 3043 	strb.w	r3, [r4, #67]	; 0x43
 8002ae4:	e79f      	b.n	8002a26 <_printf_i+0x126>
 8002ae6:	6923      	ldr	r3, [r4, #16]
 8002ae8:	462a      	mov	r2, r5
 8002aea:	4639      	mov	r1, r7
 8002aec:	4630      	mov	r0, r6
 8002aee:	47c0      	blx	r8
 8002af0:	3001      	adds	r0, #1
 8002af2:	d0a2      	beq.n	8002a3a <_printf_i+0x13a>
 8002af4:	6823      	ldr	r3, [r4, #0]
 8002af6:	079b      	lsls	r3, r3, #30
 8002af8:	d507      	bpl.n	8002b0a <_printf_i+0x20a>
 8002afa:	2500      	movs	r5, #0
 8002afc:	f104 0919 	add.w	r9, r4, #25
 8002b00:	68e3      	ldr	r3, [r4, #12]
 8002b02:	9a03      	ldr	r2, [sp, #12]
 8002b04:	1a9b      	subs	r3, r3, r2
 8002b06:	429d      	cmp	r5, r3
 8002b08:	db05      	blt.n	8002b16 <_printf_i+0x216>
 8002b0a:	68e0      	ldr	r0, [r4, #12]
 8002b0c:	9b03      	ldr	r3, [sp, #12]
 8002b0e:	4298      	cmp	r0, r3
 8002b10:	bfb8      	it	lt
 8002b12:	4618      	movlt	r0, r3
 8002b14:	e793      	b.n	8002a3e <_printf_i+0x13e>
 8002b16:	2301      	movs	r3, #1
 8002b18:	464a      	mov	r2, r9
 8002b1a:	4639      	mov	r1, r7
 8002b1c:	4630      	mov	r0, r6
 8002b1e:	47c0      	blx	r8
 8002b20:	3001      	adds	r0, #1
 8002b22:	d08a      	beq.n	8002a3a <_printf_i+0x13a>
 8002b24:	3501      	adds	r5, #1
 8002b26:	e7eb      	b.n	8002b00 <_printf_i+0x200>
 8002b28:	2b00      	cmp	r3, #0
 8002b2a:	d1a7      	bne.n	8002a7c <_printf_i+0x17c>
 8002b2c:	780b      	ldrb	r3, [r1, #0]
 8002b2e:	f884 3042 	strb.w	r3, [r4, #66]	; 0x42
 8002b32:	f104 0542 	add.w	r5, r4, #66	; 0x42
 8002b36:	e765      	b.n	8002a04 <_printf_i+0x104>
 8002b38:	08002fea 	.word	0x08002fea
 8002b3c:	08002fd9 	.word	0x08002fd9

08002b40 <memchr>:
 8002b40:	f001 01ff 	and.w	r1, r1, #255	; 0xff
 8002b44:	2a10      	cmp	r2, #16
 8002b46:	db2b      	blt.n	8002ba0 <memchr+0x60>
 8002b48:	f010 0f07 	tst.w	r0, #7
 8002b4c:	d008      	beq.n	8002b60 <memchr+0x20>
 8002b4e:	f810 3b01 	ldrb.w	r3, [r0], #1
 8002b52:	3a01      	subs	r2, #1
 8002b54:	428b      	cmp	r3, r1
 8002b56:	d02d      	beq.n	8002bb4 <memchr+0x74>
 8002b58:	f010 0f07 	tst.w	r0, #7
 8002b5c:	b342      	cbz	r2, 8002bb0 <memchr+0x70>
 8002b5e:	d1f6      	bne.n	8002b4e <memchr+0xe>
 8002b60:	b4f0      	push	{r4, r5, r6, r7}
 8002b62:	ea41 2101 	orr.w	r1, r1, r1, lsl #8
 8002b66:	ea41 4101 	orr.w	r1, r1, r1, lsl #16
 8002b6a:	f022 0407 	bic.w	r4, r2, #7
 8002b6e:	f07f 0700 	mvns.w	r7, #0
 8002b72:	2300      	movs	r3, #0
 8002b74:	e8f0 5602 	ldrd	r5, r6, [r0], #8
 8002b78:	3c08      	subs	r4, #8
 8002b7a:	ea85 0501 	eor.w	r5, r5, r1
 8002b7e:	ea86 0601 	eor.w	r6, r6, r1
 8002b82:	fa85 f547 	uadd8	r5, r5, r7
 8002b86:	faa3 f587 	sel	r5, r3, r7
 8002b8a:	fa86 f647 	uadd8	r6, r6, r7
 8002b8e:	faa5 f687 	sel	r6, r5, r7
 8002b92:	b98e      	cbnz	r6, 8002bb8 <memchr+0x78>
 8002b94:	d1ee      	bne.n	8002b74 <memchr+0x34>
 8002b96:	bcf0      	pop	{r4, r5, r6, r7}
 8002b98:	f001 01ff 	and.w	r1, r1, #255	; 0xff
 8002b9c:	f002 0207 	and.w	r2, r2, #7
 8002ba0:	b132      	cbz	r2, 8002bb0 <memchr+0x70>
 8002ba2:	f810 3b01 	ldrb.w	r3, [r0], #1
 8002ba6:	3a01      	subs	r2, #1
 8002ba8:	ea83 0301 	eor.w	r3, r3, r1
 8002bac:	b113      	cbz	r3, 8002bb4 <memchr+0x74>
 8002bae:	d1f8      	bne.n	8002ba2 <memchr+0x62>
 8002bb0:	2000      	movs	r0, #0
 8002bb2:	4770      	bx	lr
 8002bb4:	3801      	subs	r0, #1
 8002bb6:	4770      	bx	lr
 8002bb8:	2d00      	cmp	r5, #0
 8002bba:	bf06      	itte	eq
 8002bbc:	4635      	moveq	r5, r6
 8002bbe:	3803      	subeq	r0, #3
 8002bc0:	3807      	subne	r0, #7
 8002bc2:	f015 0f01 	tst.w	r5, #1
 8002bc6:	d107      	bne.n	8002bd8 <memchr+0x98>
 8002bc8:	3001      	adds	r0, #1
 8002bca:	f415 7f80 	tst.w	r5, #256	; 0x100
 8002bce:	bf02      	ittt	eq
 8002bd0:	3001      	addeq	r0, #1
 8002bd2:	f415 3fc0 	tsteq.w	r5, #98304	; 0x18000
 8002bd6:	3001      	addeq	r0, #1
 8002bd8:	bcf0      	pop	{r4, r5, r6, r7}
 8002bda:	3801      	subs	r0, #1
 8002bdc:	4770      	bx	lr
 8002bde:	bf00      	nop

08002be0 <memcpy>:
 8002be0:	b510      	push	{r4, lr}
 8002be2:	1e43      	subs	r3, r0, #1
 8002be4:	440a      	add	r2, r1
 8002be6:	4291      	cmp	r1, r2
 8002be8:	d100      	bne.n	8002bec <memcpy+0xc>
 8002bea:	bd10      	pop	{r4, pc}
 8002bec:	f811 4b01 	ldrb.w	r4, [r1], #1
 8002bf0:	f803 4f01 	strb.w	r4, [r3, #1]!
 8002bf4:	e7f7      	b.n	8002be6 <memcpy+0x6>

08002bf6 <memmove>:
 8002bf6:	4288      	cmp	r0, r1
 8002bf8:	b510      	push	{r4, lr}
 8002bfa:	eb01 0302 	add.w	r3, r1, r2
 8002bfe:	d803      	bhi.n	8002c08 <memmove+0x12>
 8002c00:	1e42      	subs	r2, r0, #1
 8002c02:	4299      	cmp	r1, r3
 8002c04:	d10c      	bne.n	8002c20 <memmove+0x2a>
 8002c06:	bd10      	pop	{r4, pc}
 8002c08:	4298      	cmp	r0, r3
 8002c0a:	d2f9      	bcs.n	8002c00 <memmove+0xa>
 8002c0c:	1881      	adds	r1, r0, r2
 8002c0e:	1ad2      	subs	r2, r2, r3
 8002c10:	42d3      	cmn	r3, r2
 8002c12:	d100      	bne.n	8002c16 <memmove+0x20>
 8002c14:	bd10      	pop	{r4, pc}
 8002c16:	f813 4d01 	ldrb.w	r4, [r3, #-1]!
 8002c1a:	f801 4d01 	strb.w	r4, [r1, #-1]!
 8002c1e:	e7f7      	b.n	8002c10 <memmove+0x1a>
 8002c20:	f811 4b01 	ldrb.w	r4, [r1], #1
 8002c24:	f802 4f01 	strb.w	r4, [r2, #1]!
 8002c28:	e7eb      	b.n	8002c02 <memmove+0xc>

08002c2a <_realloc_r>:
 8002c2a:	b5f8      	push	{r3, r4, r5, r6, r7, lr}
 8002c2c:	4607      	mov	r7, r0
 8002c2e:	4614      	mov	r4, r2
 8002c30:	460e      	mov	r6, r1
 8002c32:	b921      	cbnz	r1, 8002c3e <_realloc_r+0x14>
 8002c34:	4611      	mov	r1, r2
 8002c36:	e8bd 40f8 	ldmia.w	sp!, {r3, r4, r5, r6, r7, lr}
 8002c3a:	f7ff bbd7 	b.w	80023ec <_malloc_r>
 8002c3e:	b922      	cbnz	r2, 8002c4a <_realloc_r+0x20>
 8002c40:	f7ff fb86 	bl	8002350 <_free_r>
 8002c44:	4625      	mov	r5, r4
 8002c46:	4628      	mov	r0, r5
 8002c48:	bdf8      	pop	{r3, r4, r5, r6, r7, pc}
 8002c4a:	f000 f814 	bl	8002c76 <_malloc_usable_size_r>
 8002c4e:	4284      	cmp	r4, r0
 8002c50:	d90f      	bls.n	8002c72 <_realloc_r+0x48>
 8002c52:	4621      	mov	r1, r4
 8002c54:	4638      	mov	r0, r7
 8002c56:	f7ff fbc9 	bl	80023ec <_malloc_r>
 8002c5a:	4605      	mov	r5, r0
 8002c5c:	2800      	cmp	r0, #0
 8002c5e:	d0f2      	beq.n	8002c46 <_realloc_r+0x1c>
 8002c60:	4631      	mov	r1, r6
 8002c62:	4622      	mov	r2, r4
 8002c64:	f7ff ffbc 	bl	8002be0 <memcpy>
 8002c68:	4631      	mov	r1, r6
 8002c6a:	4638      	mov	r0, r7
 8002c6c:	f7ff fb70 	bl	8002350 <_free_r>
 8002c70:	e7e9      	b.n	8002c46 <_realloc_r+0x1c>
 8002c72:	4635      	mov	r5, r6
 8002c74:	e7e7      	b.n	8002c46 <_realloc_r+0x1c>

08002c76 <_malloc_usable_size_r>:
 8002c76:	f851 0c04 	ldr.w	r0, [r1, #-4]
 8002c7a:	2800      	cmp	r0, #0
 8002c7c:	f1a0 0004 	sub.w	r0, r0, #4
 8002c80:	bfbc      	itt	lt
 8002c82:	580b      	ldrlt	r3, [r1, r0]
 8002c84:	18c0      	addlt	r0, r0, r3
 8002c86:	4770      	bx	lr
 8002c88:	732f2e2e 	.word	0x732f2e2e
 8002c8c:	65747379 	.word	0x65747379
 8002c90:	72732f6d 	.word	0x72732f6d
 8002c94:	74732f63 	.word	0x74732f63
 8002c98:	6632336d 	.word	0x6632336d
 8002c9c:	61682d34 	.word	0x61682d34
 8002ca0:	74732f6c 	.word	0x74732f6c
 8002ca4:	6632336d 	.word	0x6632336d
 8002ca8:	5f787834 	.word	0x5f787834
 8002cac:	5f6c6168 	.word	0x5f6c6168
 8002cb0:	74726f63 	.word	0x74726f63
 8002cb4:	632e7865 	.word	0x632e7865
 8002cb8:	00000000 	.word	0x00000000
 8002cbc:	732f2e2e 	.word	0x732f2e2e
 8002cc0:	65747379 	.word	0x65747379
 8002cc4:	72732f6d 	.word	0x72732f6d
 8002cc8:	74732f63 	.word	0x74732f63
 8002ccc:	6632336d 	.word	0x6632336d
 8002cd0:	61682d34 	.word	0x61682d34
 8002cd4:	74732f6c 	.word	0x74732f6c
 8002cd8:	6632336d 	.word	0x6632336d
 8002cdc:	5f787834 	.word	0x5f787834
 8002ce0:	5f6c6168 	.word	0x5f6c6168
 8002ce4:	6f697067 	.word	0x6f697067
 8002ce8:	0000632e 	.word	0x0000632e

08002cec <APBAHBPrescTable>:
 8002cec:	00000000 04030201 04030201 09080706     ................
 8002cfc:	732f2e2e 65747379 72732f6d 74732f63     ../system/src/st
 8002d0c:	6632336d 61682d34 74732f6c 6632336d     m32f4-hal/stm32f
 8002d1c:	5f787834 5f6c6168 2e636372 00000063     4xx_hal_rcc.c...
 8002d2c:	726f6261 2c292874 69786520 676e6974     abort(), exiting
 8002d3c:	002e2e2e 7566202c 6974636e 203a6e6f     ...., function: 
 8002d4c:	00000000 65737361 6f697472 2522206e     ....assertion "%
 8002d5c:	66202273 656c6961 66203a64 20656c69     s" failed: file 
 8002d6c:	22732522 696c202c 2520656e 25732564     "%s", line %d%s%
 8002d7c:	00000a73 65737361 705f7472 6d617261     s...assert_param
 8002d8c:	66202928 656c6961 66203a64 20656c69     () failed: file 
 8002d9c:	22732522 696c202c 2520656e 00000a64     "%s", line %d...
 8002dac:	6e69616d 67726128 64253d63 7261202c     main(argc=%d, ar
 8002dbc:	5b3d7667 00000000 0000202c 22732522     gv=[...., .."%s"
 8002dcc:	00000000 0a3b295d 00000000 63617453     ....]);.....Stac
 8002ddc:	7266206b 3a656d61 0000000a 20305220     k frame:.... R0 
 8002dec:	2520203d 0a583830 00000000 20315220     =  %08X..... R1 
 8002dfc:	2520203d 0a583830 00000000 20325220     =  %08X..... R2 
 8002e0c:	2520203d 0a583830 00000000 20335220     =  %08X..... R3 
 8002e1c:	2520203d 0a583830 00000000 32315220     =  %08X..... R12
 8002e2c:	25203d20 0a583830 00000000 20524c20      = %08X..... LR 
 8002e3c:	2520203d 0a583830 00000000 20435020     =  %08X..... PC 
 8002e4c:	2520203d 0a583830 00000000 52535020     =  %08X..... PSR
 8002e5c:	25203d20 0a583830 00000000 2f525346      = %08X.....FSR/
 8002e6c:	3a524146 0000000a 53464320 203d2052     FAR:.... CFSR = 
 8002e7c:	38302520 00000a58 53464820 203d2052      %08X... HFSR = 
 8002e8c:	38302520 00000a58 53464420 203d2052      %08X... DFSR = 
 8002e9c:	38302520 00000a58 53464120 203d2052      %08X... AFSR = 
 8002eac:	38302520 00000a58 464d4d20 3d205241      %08X... MMFAR =
 8002ebc:	38302520 00000a58 41464220 203d2052      %08X... BFAR = 
 8002ecc:	38302520 00000a58 6373694d 0000000a      %08X...Misc....
 8002edc:	2f524c20 5f435845 55544552 203d4e52      LR/EXC_RETURN= 
 8002eec:	58383025 0000000a 7261485b 75614664     %08X....[HardFau
 8002efc:	0a5d746c 00000000 7375425b 6c756146     lt].....[BusFaul
 8002f0c:	000a5d74 6173555b 61466567 5d746c75     t]..[UsageFault]
 8002f1c:	0000000a                                ....

08002f20 <AHBPrescTable>:
	...
 8002f28:	04030201 09080706 72617453 2e2e2e74     ........Start...
 8002f38:	00000a21 696e6946 2e2e6873 000a212e     !...Finish...!..
 8002f48:	59524844 4e4f5453 52502045 4152474f     DHRYSTONE PROGRA
 8002f58:	53202c4d 20454d4f 49525453 0000474e     M, SOME STRING..
 8002f68:	59524844 4e4f5453 52502045 4152474f     DHRYSTONE PROGRA
 8002f78:	31202c4d 20545327 49525453 0000474e     M, 1'ST STRING..
 8002f88:	59524844 4e4f5453 52502045 4152474f     DHRYSTONE PROGRA
 8002f98:	32202c4d 20444e27 49525453 0000474e     M, 2'ND STRING..
 8002fa8:	59524844 4e4f5453 52502045 4152474f     DHRYSTONE PROGRA
 8002fb8:	33202c4d 20445227 49525453 0000474e     M, 3'RD STRING..
 8002fc8:	2b302d23 6c680020 6665004c 47464567     #-0+ .hlL.efgEFG
 8002fd8:	32313000 36353433 41393837 45444342     .0123456789ABCDE
 8002fe8:	31300046 35343332 39383736 64636261     F.0123456789abcd
 8002ff8:	00006665                                         ef.
